
target/aarch64-unknown-uefi/release/deps/artifact/uefi-bootloader-e4a22f63ae5ea72e/bin/uefi_bootloader-e4a22f63ae5ea72e.efi:     file format pei-aarch64-little


Disassembly of section .text:

0000000140001000 <.text>:
   140001000:	d65f03c0 	ret
   140001004:	d10603ff 	sub	sp, sp, #0x180
   140001008:	ad508400 	ldp	q0, q1, [x0, #528]
   14000100c:	a91467fa 	stp	x26, x25, [sp, #320]
   140001010:	aa0503f9 	mov	x25, x5
   140001014:	a9155ff8 	stp	x24, x23, [sp, #336]
   140001018:	aa0703f7 	mov	x23, x7
   14000101c:	a91657f6 	stp	x22, x21, [sp, #352]
   140001020:	aa0603f8 	mov	x24, x6
   140001024:	a9174ff4 	stp	x20, x19, [sp, #368]
   140001028:	aa0403fa 	mov	x26, x4
   14000102c:	aa0303f4 	mov	x20, x3
   140001030:	aa0203f5 	mov	x21, x2
   140001034:	aa0103f6 	mov	x22, x1
   140001038:	f9411808 	ldr	x8, [x0, #560]
   14000103c:	92800013 	mov	x19, #0xffffffffffffffff    	// #-1
   140001040:	a91277fe 	stp	x30, x29, [sp, #288]
   140001044:	a9136ffc 	stp	x28, x27, [sp, #304]
   140001048:	f9003fe0 	str	x0, [sp, #120]
   14000104c:	ad0587e0 	stp	q0, q1, [sp, #176]
   140001050:	f9006be8 	str	x8, [sp, #208]
   140001054:	9102c3e0 	add	x0, sp, #0xb0
   140001058:	94001034 	bl	0x140005128
   14000105c:	91000673 	add	x19, x19, #0x1
   140001060:	b5ffffa0 	cbnz	x0, 0x140001054
   140001064:	91000a6a 	add	x10, x19, #0x2
   140001068:	b200f3e8 	mov	x8, #0x5555555555555555    	// #6148914691236517205
   14000106c:	f2e0aaa8 	movk	x8, #0x555, lsl #48
   140001070:	eb08015f 	cmp	x10, x8
   140001074:	54002228 	b.hi	0x1400014b8  // b.pmore
   140001078:	8b0a0548 	add	x8, x10, x10, lsl #1
   14000107c:	928010e9 	mov	x9, #0xffffffffffffff78    	// #-136
   140001080:	d37df108 	lsl	x8, x8, #3
   140001084:	f2efffe9 	movk	x9, #0x7fff, lsl #48
   140001088:	eb09011f 	cmp	x8, x9
   14000108c:	54002248 	b.hi	0x1400014d4  // b.pmore
   140001090:	b201e7e9 	mov	x9, #0x9999999999999999    	// #-7378697629483820647
   140001094:	f2e03329 	movk	x9, #0x199, lsl #48
   140001098:	eb09033f 	cmp	x25, x9
   14000109c:	540022a8 	b.hi	0x1400014f0  // b.pmore
   1400010a0:	8b190b29 	add	x9, x25, x25, lsl #2
   1400010a4:	9102010b 	add	x11, x8, #0x80
   1400010a8:	d37ced3d 	lsl	x29, x9, #4
   1400010ac:	ab1d0169 	adds	x9, x11, x29
   1400010b0:	540022e2 	b.cs	0x14000150c  // b.hs, b.nlast
   1400010b4:	b27defe8 	mov	x8, #0x7ffffffffffffff8    	// #9223372036854775800
   1400010b8:	eb08013f 	cmp	x9, x8
   1400010bc:	54002288 	b.hi	0x14000150c  // b.pmore
   1400010c0:	d28e8ba8 	mov	x8, #0x745d                	// #29789
   1400010c4:	f2a8ba28 	movk	x8, #0x45d1, lsl #16
   1400010c8:	f2cba2e8 	movk	x8, #0x5d17, lsl #32
   1400010cc:	f2e02e88 	movk	x8, #0x174, lsl #48
   1400010d0:	eb0802ff 	cmp	x23, x8
   1400010d4:	540022a8 	b.hi	0x140001528  // b.pmore
   1400010d8:	52800b08 	mov	w8, #0x58                  	// #88
   1400010dc:	a90627eb 	stp	x11, x9, [sp, #96]
   1400010e0:	9b087ee8 	mul	x8, x23, x8
   1400010e4:	ab080133 	adds	x19, x9, x8
   1400010e8:	f9003be8 	str	x8, [sp, #112]
   1400010ec:	540022c2 	b.cs	0x140001544  // b.hs, b.nlast
   1400010f0:	b27defe8 	mov	x8, #0x7ffffffffffffff8    	// #9223372036854775800
   1400010f4:	eb08027f 	cmp	x19, x8
   1400010f8:	54002268 	b.hi	0x140001544  // b.pmore
   1400010fc:	f9403fe0 	ldr	x0, [sp, #120]
   140001100:	aa1303e1 	mov	x1, x19
   140001104:	f9000fea 	str	x10, [sp, #24]
   140001108:	a902e7fa 	stp	x26, x25, [sp, #40]
   14000110c:	f9001ff8 	str	x24, [sp, #56]
   140001110:	a904d7f6 	stp	x22, x21, [sp, #72]
   140001114:	940002ef 	bl	0x140001cd0
   140001118:	ab130008 	adds	x8, x0, x19
   14000111c:	d00000bc 	adrp	x28, 0x140017000
   140001120:	da9f3108 	csinv	x8, x8, xzr, cc	// cc = lo, ul, last
   140001124:	f90013f3 	str	x19, [sp, #32]
   140001128:	9240bd08 	and	x8, x8, #0xffffffffffff
   14000112c:	aa0003fb 	mov	x27, x0
   140001130:	f1000508 	subs	x8, x8, #0x1
   140001134:	9a8833f3 	csel	x19, xzr, x8, cc	// cc = lo, ul, last
   140001138:	d5382008 	mrs	x8, ttbr0_el1
   14000113c:	927fb908 	and	x8, x8, #0xfffffffffffe
   140001140:	f940039c 	ldr	x28, [x28]
   140001144:	f9008be8 	str	x8, [sp, #272]
   140001148:	f9400389 	ldr	x9, [x28]
   14000114c:	f1000d3f 	cmp	x9, #0x3
   140001150:	540002a3 	b.cc	0x1400011a4  // b.lo, b.ul, b.last
   140001154:	910443e8 	add	x8, sp, #0x110
   140001158:	90000009 	adrp	x9, 0x140001000
   14000115c:	91326129 	add	x9, x9, #0xc98
   140001160:	d000004a 	adrp	x10, 0x14000b000
   140001164:	9120014a 	add	x10, x10, #0x800
   140001168:	d0000042 	adrp	x2, 0x14000b000
   14000116c:	91212042 	add	x2, x2, #0x848
   140001170:	9102c3e0 	add	x0, sp, #0xb0
   140001174:	a90927e8 	stp	x8, x9, [sp, #144]
   140001178:	52800028 	mov	w8, #0x1                   	// #1
   14000117c:	d0000049 	adrp	x9, 0x14000b000
   140001180:	91204129 	add	x9, x9, #0x810
   140001184:	52800061 	mov	w1, #0x3                   	// #3
   140001188:	aa1f03e3 	mov	x3, xzr
   14000118c:	a90c23ea 	stp	x10, x8, [sp, #192]
   140001190:	910243ea 	add	x10, sp, #0x90
   140001194:	a90b23e9 	stp	x9, x8, [sp, #176]
   140001198:	a90d23ea 	stp	x10, x8, [sp, #208]
   14000119c:	94000ece 	bl	0x140004cd4
   1400011a0:	f9408be8 	ldr	x8, [sp, #272]
   1400011a4:	f9000bfd 	str	x29, [sp, #16]
   1400011a8:	d34cff79 	lsr	x25, x27, #12
   1400011ac:	f90023f7 	str	x23, [sp, #64]
   1400011b0:	d34cfe78 	lsr	x24, x19, #12
   1400011b4:	f9002ff4 	str	x20, [sp, #88]
   1400011b8:	f90043e8 	str	x8, [sp, #128]
   1400011bc:	f9400388 	ldr	x8, [x28]
   1400011c0:	f100091f 	cmp	x8, #0x2
   1400011c4:	540001e9 	b.ls	0x140001200  // b.plast
   1400011c8:	d0000048 	adrp	x8, 0x14000b000
   1400011cc:	91050108 	add	x8, x8, #0x140
   1400011d0:	52800029 	mov	w9, #0x1                   	// #1
   1400011d4:	d0000042 	adrp	x2, 0x14000b000
   1400011d8:	9105c042 	add	x2, x2, #0x170
   1400011dc:	9102c3e0 	add	x0, sp, #0xb0
   1400011e0:	52800061 	mov	w1, #0x3                   	// #3
   1400011e4:	aa1f03e3 	mov	x3, xzr
   1400011e8:	a90c27e8 	stp	x8, x9, [sp, #192]
   1400011ec:	d0000048 	adrp	x8, 0x14000b000
   1400011f0:	91000108 	add	x8, x8, #0x0
   1400011f4:	f9005bff 	str	xzr, [sp, #176]
   1400011f8:	a90d7fe8 	stp	x8, xzr, [sp, #208]
   1400011fc:	94000eb6 	bl	0x140004cd4
   140001200:	f9403fe8 	ldr	x8, [sp, #120]
   140001204:	eb18033f 	cmp	x25, x24
   140001208:	91080117 	add	x23, x8, #0x200
   14000120c:	54000d29 	b.ls	0x1400013b0  // b.plast
   140001210:	f9400388 	ldr	x8, [x28]
   140001214:	f100091f 	cmp	x8, #0x2
   140001218:	540001e9 	b.ls	0x140001254  // b.plast
   14000121c:	d0000048 	adrp	x8, 0x14000b000
   140001220:	910b4108 	add	x8, x8, #0x2d0
   140001224:	52800029 	mov	w9, #0x1                   	// #1
   140001228:	d0000042 	adrp	x2, 0x14000b000
   14000122c:	910b8042 	add	x2, x2, #0x2e0
   140001230:	9102c3e0 	add	x0, sp, #0xb0
   140001234:	52800061 	mov	w1, #0x3                   	// #3
   140001238:	aa1f03e3 	mov	x3, xzr
   14000123c:	a90c27e8 	stp	x8, x9, [sp, #192]
   140001240:	d0000048 	adrp	x8, 0x14000b000
   140001244:	91000108 	add	x8, x8, #0x0
   140001248:	f9005bff 	str	xzr, [sp, #176]
   14000124c:	a90d7fe8 	stp	x8, xzr, [sp, #208]
   140001250:	94000ea1 	bl	0x140004cd4
   140001254:	a944d7f6 	ldp	x22, x21, [sp, #72]
   140001258:	eb18033f 	cmp	x25, x24
   14000125c:	a94173fd 	ldp	x29, x28, [sp, #16]
   140001260:	f94017fa 	ldr	x26, [sp, #40]
   140001264:	540001c8 	b.hi	0x14000129c  // b.pmore
   140001268:	f9403fe8 	ldr	x8, [sp, #120]
   14000126c:	91098113 	add	x19, x8, #0x260
   140001270:	aa1303e0 	mov	x0, x19
   140001274:	aa1903e1 	mov	x1, x25
   140001278:	940003e8 	bl	0x140002218
   14000127c:	910203e0 	add	x0, sp, #0x80
   140001280:	aa1903e1 	mov	x1, x25
   140001284:	940003e5 	bl	0x140002218
   140001288:	eb18033f 	cmp	x25, x24
   14000128c:	9a992739 	cinc	x25, x25, cc	// cc = lo, ul, last
   140001290:	54000062 	b.cs	0x14000129c  // b.hs, b.nlast
   140001294:	eb18033f 	cmp	x25, x24
   140001298:	54fffec9 	b.ls	0x140001270  // b.plast
   14000129c:	910203e0 	add	x0, sp, #0x80
   1400012a0:	52800021 	mov	w1, #0x1                   	// #1
   1400012a4:	940003dd 	bl	0x140002218
   1400012a8:	910203e0 	add	x0, sp, #0x80
   1400012ac:	52800a01 	mov	w1, #0x50                  	// #80
   1400012b0:	940003da 	bl	0x140002218
   1400012b4:	ad4106e0 	ldp	q0, q1, [x23, #32]
   1400012b8:	b1020368 	adds	x8, x27, #0x80
   1400012bc:	9102c3e0 	add	x0, sp, #0xb0
   1400012c0:	da9f3108 	csinv	x8, x8, xzr, cc	// cc = lo, ul, last
   1400012c4:	aa1c03e2 	mov	x2, x28
   1400012c8:	9240bd01 	and	x1, x8, #0xffffffffffff
   1400012cc:	f94033e9 	ldr	x9, [sp, #96]
   1400012d0:	ad0687e0 	stp	q0, q1, [sp, #208]
   1400012d4:	ad420ee2 	ldp	q2, q3, [x23, #64]
   1400012d8:	ab090369 	adds	x9, x27, x9
   1400012dc:	da9f3128 	csinv	x8, x9, xzr, cc	// cc = lo, ul, last
   1400012e0:	9240bd13 	and	x19, x8, #0xffffffffffff
   1400012e4:	ad4006e0 	ldp	q0, q1, [x23]
   1400012e8:	ad078fe2 	stp	q2, q3, [sp, #240]
   1400012ec:	f94037e9 	ldr	x9, [sp, #104]
   1400012f0:	ad0587e0 	stp	q0, q1, [sp, #176]
   1400012f4:	ab090369 	adds	x9, x27, x9
   1400012f8:	da9f3129 	csinv	x9, x9, xzr, cc	// cc = lo, ul, last
   1400012fc:	9240bd34 	and	x20, x9, #0xffffffffffff
   140001300:	94000753 	bl	0x14000304c
   140001304:	97ffff3f 	bl	0x140001000
   140001308:	aa0003f7 	mov	x23, x0
   14000130c:	aa0103f9 	mov	x25, x1
   140001310:	aa1303e0 	mov	x0, x19
   140001314:	aa1a03e1 	mov	x1, x26
   140001318:	aa1d03e2 	mov	x2, x29
   14000131c:	940021d7 	bl	0x140009a78
   140001320:	aa1303e0 	mov	x0, x19
   140001324:	f9401be1 	ldr	x1, [sp, #48]
   140001328:	97ffff36 	bl	0x140001000
   14000132c:	aa0003f3 	mov	x19, x0
   140001330:	aa0103f8 	mov	x24, x1
   140001334:	aa1403e0 	mov	x0, x20
   140001338:	f9401fe1 	ldr	x1, [sp, #56]
   14000133c:	f9403be2 	ldr	x2, [sp, #112]
   140001340:	940021ce 	bl	0x140009a78
   140001344:	aa1403e0 	mov	x0, x20
   140001348:	f94023e1 	ldr	x1, [sp, #64]
   14000134c:	97ffff2d 	bl	0x140001000
   140001350:	ad4006c0 	ldp	q0, q1, [x22]
   140001354:	aa0003e8 	mov	x8, x0
   140001358:	a905cf79 	stp	x25, x19, [x27, #88]
   14000135c:	aa1b03e0 	mov	x0, x27
   140001360:	f9003f61 	str	x1, [x27, #120]
   140001364:	3c808360 	stur	q0, [x27, #8]
   140001368:	a906a378 	stp	x24, x8, [x27, #104]
   14000136c:	f9401ac9 	ldr	x9, [x22, #48]
   140001370:	3c818361 	stur	q1, [x27, #24]
   140001374:	3dc00ac0 	ldr	q0, [x22, #32]
   140001378:	f94013ea 	ldr	x10, [sp, #32]
   14000137c:	a903d769 	stp	x9, x21, [x27, #56]
   140001380:	f9402fe9 	ldr	x9, [sp, #88]
   140001384:	3c828360 	stur	q0, [x27, #40]
   140001388:	f900036a 	str	x10, [x27]
   14000138c:	a904df69 	stp	x9, x23, [x27, #72]
   140001390:	a9574ff4 	ldp	x20, x19, [sp, #368]
   140001394:	a95657f6 	ldp	x22, x21, [sp, #352]
   140001398:	a9555ff8 	ldp	x24, x23, [sp, #336]
   14000139c:	a95467fa 	ldp	x26, x25, [sp, #320]
   1400013a0:	a9536ffc 	ldp	x28, x27, [sp, #304]
   1400013a4:	a95277fe 	ldp	x30, x29, [sp, #288]
   1400013a8:	910603ff 	add	sp, sp, #0x180
   1400013ac:	d65f03c0 	ret
   1400013b0:	f9403fe8 	ldr	x8, [sp, #120]
   1400013b4:	52800056 	mov	w22, #0x2                   	// #2
   1400013b8:	d0000054 	adrp	x20, 0x14000b000
   1400013bc:	91074294 	add	x20, x20, #0x1d0
   1400013c0:	d0000053 	adrp	x19, 0x14000b000
   1400013c4:	91090273 	add	x19, x19, #0x240
   1400013c8:	9109811d 	add	x29, x8, #0x260
   1400013cc:	aa1903e8 	mov	x8, x25
   1400013d0:	14000011 	b	0x140001414
   1400013d4:	f94047e1 	ldr	x1, [sp, #136]
   1400013d8:	aa1d03e0 	mov	x0, x29
   1400013dc:	52800023 	mov	w3, #0x1                   	// #1
   1400013e0:	aa1703e4 	mov	x4, x23
   1400013e4:	940002cb 	bl	0x140001f10
   1400013e8:	f94047e1 	ldr	x1, [sp, #136]
   1400013ec:	910203e0 	add	x0, sp, #0x80
   1400013f0:	f9408be2 	ldr	x2, [sp, #272]
   1400013f4:	52800023 	mov	w3, #0x1                   	// #1
   1400013f8:	aa1703e4 	mov	x4, x23
   1400013fc:	940002c5 	bl	0x140001f10
   140001400:	eb18035f 	cmp	x26, x24
   140001404:	1a9f97e8 	cset	w8, hi	// hi = pmore
   140001408:	2a0802a9 	orr	w9, w21, w8
   14000140c:	aa1a03e8 	mov	x8, x26
   140001410:	3707f009 	tbnz	w9, #0, 0x140001210
   140001414:	aa1703e0 	mov	x0, x23
   140001418:	eb18011f 	cmp	x8, x24
   14000141c:	1a9f37f5 	cset	w21, cs	// cs = hs, nlast
   140001420:	9a88251a 	cinc	x26, x8, cc	// cc = lo, ul, last
   140001424:	f90047e8 	str	x8, [sp, #136]
   140001428:	940007bf 	bl	0x140003324
   14000142c:	b4000380 	cbz	x0, 0x14000149c
   140001430:	f9008be1 	str	x1, [sp, #272]
   140001434:	aa0103e2 	mov	x2, x1
   140001438:	f9400388 	ldr	x8, [x28]
   14000143c:	f100091f 	cmp	x8, #0x2
   140001440:	54fffca9 	b.ls	0x1400013d4  // b.plast
   140001444:	910223e8 	add	x8, sp, #0x88
   140001448:	9102c3e0 	add	x0, sp, #0xb0
   14000144c:	52800061 	mov	w1, #0x3                   	// #3
   140001450:	aa1303e2 	mov	x2, x19
   140001454:	aa1f03e3 	mov	x3, xzr
   140001458:	f9005ff6 	str	x22, [sp, #184]
   14000145c:	f9004be8 	str	x8, [sp, #144]
   140001460:	d0000008 	adrp	x8, 0x140003000
   140001464:	91114109 	add	x9, x8, #0x450
   140001468:	910443e8 	add	x8, sp, #0x110
   14000146c:	a909a3e9 	stp	x9, x8, [sp, #152]
   140001470:	d0000008 	adrp	x8, 0x140003000
   140001474:	9112e108 	add	x8, x8, #0x4b8
   140001478:	a90ad3e8 	stp	x8, x20, [sp, #168]
   14000147c:	d0000048 	adrp	x8, 0x14000b000
   140001480:	9106c108 	add	x8, x8, #0x1b0
   140001484:	a90c5be8 	stp	x8, x22, [sp, #192]
   140001488:	910243e8 	add	x8, sp, #0x90
   14000148c:	a90d5be8 	stp	x8, x22, [sp, #208]
   140001490:	94000e11 	bl	0x140004cd4
   140001494:	f9408be2 	ldr	x2, [sp, #272]
   140001498:	17ffffcf 	b	0x1400013d4
   14000149c:	d0000040 	adrp	x0, 0x14000b000
   1400014a0:	9109e000 	add	x0, x0, #0x278
   1400014a4:	d0000042 	adrp	x2, 0x14000b000
   1400014a8:	910aa042 	add	x2, x2, #0x2a8
   1400014ac:	52800561 	mov	w1, #0x2b                  	// #43
   1400014b0:	940023b5 	bl	0x14000a384
   1400014b4:	d4200020 	brk	#0x1
   1400014b8:	d0000040 	adrp	x0, 0x14000b000
   1400014bc:	91000000 	add	x0, x0, #0x0
   1400014c0:	d0000043 	adrp	x3, 0x14000b000
   1400014c4:	9100c063 	add	x3, x3, #0x30
   1400014c8:	d0000044 	adrp	x4, 0x14000b000
   1400014cc:	91026084 	add	x4, x4, #0x98
   1400014d0:	14000023 	b	0x14000155c
   1400014d4:	d0000040 	adrp	x0, 0x14000b000
   1400014d8:	91000000 	add	x0, x0, #0x0
   1400014dc:	d0000043 	adrp	x3, 0x14000b000
   1400014e0:	9100c063 	add	x3, x3, #0x30
   1400014e4:	d0000044 	adrp	x4, 0x14000b000
   1400014e8:	9102c084 	add	x4, x4, #0xb0
   1400014ec:	1400001c 	b	0x14000155c
   1400014f0:	d0000040 	adrp	x0, 0x14000b000
   1400014f4:	91000000 	add	x0, x0, #0x0
   1400014f8:	d0000043 	adrp	x3, 0x14000b000
   1400014fc:	9100c063 	add	x3, x3, #0x30
   140001500:	d0000044 	adrp	x4, 0x14000b000
   140001504:	91032084 	add	x4, x4, #0xc8
   140001508:	14000015 	b	0x14000155c
   14000150c:	d0000040 	adrp	x0, 0x14000b000
   140001510:	91000000 	add	x0, x0, #0x0
   140001514:	d0000043 	adrp	x3, 0x14000b000
   140001518:	9100c063 	add	x3, x3, #0x30
   14000151c:	d0000044 	adrp	x4, 0x14000b000
   140001520:	91038084 	add	x4, x4, #0xe0
   140001524:	1400000e 	b	0x14000155c
   140001528:	d0000040 	adrp	x0, 0x14000b000
   14000152c:	91000000 	add	x0, x0, #0x0
   140001530:	d0000043 	adrp	x3, 0x14000b000
   140001534:	9100c063 	add	x3, x3, #0x30
   140001538:	d0000044 	adrp	x4, 0x14000b000
   14000153c:	9103e084 	add	x4, x4, #0xf8
   140001540:	14000007 	b	0x14000155c
   140001544:	d0000040 	adrp	x0, 0x14000b000
   140001548:	91000000 	add	x0, x0, #0x0
   14000154c:	d0000043 	adrp	x3, 0x14000b000
   140001550:	9100c063 	add	x3, x3, #0x30
   140001554:	d0000044 	adrp	x4, 0x14000b000
   140001558:	91044084 	add	x4, x4, #0x110
   14000155c:	910463e2 	add	x2, sp, #0x118
   140001560:	52800561 	mov	w1, #0x2b                  	// #43
   140001564:	94002405 	bl	0x14000a578
   140001568:	d4200020 	brk	#0x1
   14000156c:	d10283ff 	sub	sp, sp, #0xa0
   140001570:	a9094ff4 	stp	x20, x19, [sp, #144]
   140001574:	f9401433 	ldr	x19, [x1, #40]
   140001578:	91082014 	add	x20, x0, #0x208
   14000157c:	a90857f6 	stp	x22, x21, [sp, #128]
   140001580:	aa0003f6 	mov	x22, x0
   140001584:	aa1403e0 	mov	x0, x20
   140001588:	a9075ff8 	stp	x24, x23, [sp, #112]
   14000158c:	d1000668 	sub	x8, x19, #0x1
   140001590:	f9400c38 	ldr	x24, [x1, #24]
   140001594:	d34cfd08 	lsr	x8, x8, #12
   140001598:	f90023fe 	str	x30, [sp, #64]
   14000159c:	aa0103f7 	mov	x23, x1
   1400015a0:	a9056ffc 	stp	x28, x27, [sp, #80]
   1400015a4:	91000515 	add	x21, x8, #0x1
   1400015a8:	a90667fa 	stp	x26, x25, [sp, #96]
   1400015ac:	940010fe 	bl	0x1400059a4
   1400015b0:	f144031f 	cmp	x24, #0x100, lsl #12
   1400015b4:	54000061 	b.ne	0x1400015c0  // b.any
   1400015b8:	52800041 	mov	w1, #0x2                   	// #2
   1400015bc:	14000002 	b	0x1400015c4
   1400015c0:	aa1f03e1 	mov	x1, xzr
   1400015c4:	52a00202 	mov	w2, #0x100000              	// #1048576
   1400015c8:	12800003 	mov	w3, #0xffffffff            	// #-1
   1400015cc:	aa1503e4 	mov	x4, x21
   1400015d0:	94000e2f 	bl	0x140004e8c
   1400015d4:	aa0103f5 	mov	x21, x1
   1400015d8:	b50008a0 	cbnz	x0, 0x1400016ec
   1400015dc:	aa1503e0 	mov	x0, x21
   1400015e0:	2a1f03e1 	mov	w1, wzr
   1400015e4:	aa1303e2 	mov	x2, x19
   1400015e8:	94002125 	bl	0x140009a7c
   1400015ec:	ad4006e0 	ldp	q0, q1, [x23]
   1400015f0:	910003e1 	mov	x1, sp
   1400015f4:	aa1603e0 	mov	x0, x22
   1400015f8:	3dc00ae2 	ldr	q2, [x23, #32]
   1400015fc:	ad0007e0 	stp	q0, q1, [sp]
   140001600:	f9401ae8 	ldr	x8, [x23, #48]
   140001604:	3d800be2 	str	q2, [sp, #32]
   140001608:	f9001be8 	str	x8, [sp, #48]
   14000160c:	94000202 	bl	0x140001e14
   140001610:	f9400ae9 	ldr	x9, [x23, #16]
   140001614:	394012ec 	ldrb	w12, [x23, #4]
   140001618:	9240bd28 	and	x8, x9, #0xffffffffffff
   14000161c:	d34cbd37 	ubfx	x23, x9, #12, #36
   140001620:	ab130108 	adds	x8, x8, x19
   140001624:	da9f3108 	csinv	x8, x8, xzr, cc	// cc = lo, ul, last
   140001628:	9240bd0a 	and	x10, x8, #0xffffffffffff
   14000162c:	9240bea8 	and	x8, x21, #0xffffffffffff
   140001630:	f100054a 	subs	x10, x10, #0x1
   140001634:	9a8a33ea 	csel	x10, xzr, x10, cc	// cc = lo, ul, last
   140001638:	ab13010b 	adds	x11, x8, x19
   14000163c:	da9f316b 	csinv	x11, x11, xzr, cc	// cc = lo, ul, last
   140001640:	d34cfd59 	lsr	x25, x10, #12
   140001644:	9240bd6b 	and	x11, x11, #0xffffffffffff
   140001648:	f100056b 	subs	x11, x11, #0x1
   14000164c:	9a8b33e9 	csel	x9, xzr, x11, cc	// cc = lo, ul, last
   140001650:	d280002b 	mov	x11, #0x1                   	// #1
   140001654:	7200019f 	tst	w12, #0x1
   140001658:	f2e00c0b 	movk	x11, #0x60, lsl #48
   14000165c:	9a9f0578 	csinc	x24, x11, xzr, eq	// eq = none
   140001660:	eb1902ff 	cmp	x23, x25
   140001664:	54000169 	b.ls	0x140001690  // b.plast
   140001668:	aa1503e0 	mov	x0, x21
   14000166c:	aa1303e1 	mov	x1, x19
   140001670:	a9494ff4 	ldp	x20, x19, [sp, #144]
   140001674:	a94857f6 	ldp	x22, x21, [sp, #128]
   140001678:	a9475ff8 	ldp	x24, x23, [sp, #112]
   14000167c:	a94667fa 	ldp	x26, x25, [sp, #96]
   140001680:	a9456ffc 	ldp	x28, x27, [sp, #80]
   140001684:	f94023fe 	ldr	x30, [sp, #64]
   140001688:	910283ff 	add	sp, sp, #0xa0
   14000168c:	d65f03c0 	ret
   140001690:	2a1f03fb 	mov	w27, wzr
   140001694:	d34cfd3a 	lsr	x26, x9, #12
   140001698:	d34cfd02 	lsr	x2, x8, #12
   14000169c:	910842d6 	add	x22, x22, #0x210
   1400016a0:	72001f7f 	tst	w27, #0xff
   1400016a4:	54fffe21 	b.ne	0x140001668  // b.any
   1400016a8:	eb1a005f 	cmp	x2, x26
   1400016ac:	54fffde8 	b.hi	0x140001668  // b.pmore
   1400016b0:	910003e4 	mov	x4, sp
   1400016b4:	aa1603e0 	mov	x0, x22
   1400016b8:	aa1703e1 	mov	x1, x23
   1400016bc:	aa1803e3 	mov	x3, x24
   1400016c0:	1a9f37fb 	cset	w27, cs	// cs = hs, nlast
   1400016c4:	9a82245c 	cinc	x28, x2, cc	// cc = lo, ul, last
   1400016c8:	f90003f4 	str	x20, [sp]
   1400016cc:	94000269 	bl	0x140002070
   1400016d0:	eb1902ff 	cmp	x23, x25
   1400016d4:	9a9726f7 	cinc	x23, x23, cc	// cc = lo, ul, last
   1400016d8:	54fffc82 	b.cs	0x140001668  // b.hs, b.nlast
   1400016dc:	aa1c03e2 	mov	x2, x28
   1400016e0:	eb1902ff 	cmp	x23, x25
   1400016e4:	54fffde9 	b.ls	0x1400016a0  // b.plast
   1400016e8:	17ffffe0 	b	0x140001668
   1400016ec:	d0000040 	adrp	x0, 0x14000b000
   1400016f0:	91000000 	add	x0, x0, #0x0
   1400016f4:	d0000043 	adrp	x3, 0x14000b000
   1400016f8:	910c6063 	add	x3, x3, #0x318
   1400016fc:	d0000044 	adrp	x4, 0x14000b000
   140001700:	910e0084 	add	x4, x4, #0x380
   140001704:	910003e2 	mov	x2, sp
   140001708:	52800561 	mov	w1, #0x2b                  	// #43
   14000170c:	f90003f5 	str	x21, [sp]
   140001710:	9400239a 	bl	0x14000a578
   140001714:	d4200020 	brk	#0x1
   140001718:	d10203ff 	sub	sp, sp, #0x80
   14000171c:	a90657f6 	stp	x22, x21, [sp, #96]
   140001720:	91082016 	add	x22, x0, #0x208
   140001724:	a9074ff4 	stp	x20, x19, [sp, #112]
   140001728:	aa0003f4 	mov	x20, x0
   14000172c:	aa1603e0 	mov	x0, x22
   140001730:	a90467fe 	stp	x30, x25, [sp, #64]
   140001734:	a9055ff8 	stp	x24, x23, [sp, #80]
   140001738:	aa0803f3 	mov	x19, x8
   14000173c:	9400109a 	bl	0x1400059a4
   140001740:	94000deb 	bl	0x140004eec
   140001744:	8b000835 	add	x21, x1, x0, lsl #2
   140001748:	aa1603e0 	mov	x0, x22
   14000174c:	94001096 	bl	0x1400059a4
   140001750:	d10006a8 	sub	x8, x21, #0x1
   140001754:	aa1f03e1 	mov	x1, xzr
   140001758:	d34cfd08 	lsr	x8, x8, #12
   14000175c:	52800043 	mov	w3, #0x2                   	// #2
   140001760:	91000504 	add	x4, x8, #0x1
   140001764:	94000dca 	bl	0x140004e8c
   140001768:	aa0103e2 	mov	x2, x1
   14000176c:	b5000440 	cbnz	x0, 0x1400017f4
   140001770:	f9410680 	ldr	x0, [x20, #520]
   140001774:	910023e8 	add	x8, sp, #0x8
   140001778:	f9410281 	ldr	x1, [x20, #512]
   14000177c:	aa1503e3 	mov	x3, x21
   140001780:	9400108c 	bl	0x1400059b0
   140001784:	f94007e8 	ldr	x8, [sp, #8]
   140001788:	b4000488 	cbz	x8, 0x140001818
   14000178c:	a9415bf5 	ldp	x21, x22, [sp, #16]
   140001790:	aa1303e0 	mov	x0, x19
   140001794:	aa1403e1 	mov	x1, x20
   140001798:	a94263f7 	ldp	x23, x24, [sp, #32]
   14000179c:	52804002 	mov	w2, #0x200                 	// #512
   1400017a0:	f9401bf9 	ldr	x25, [sp, #48]
   1400017a4:	940020b5 	bl	0x140009a78
   1400017a8:	f9410a88 	ldr	x8, [x20, #528]
   1400017ac:	f9011e75 	str	x21, [x19, #568]
   1400017b0:	f9012276 	str	x22, [x19, #576]
   1400017b4:	f9012677 	str	x23, [x19, #584]
   1400017b8:	f9012a78 	str	x24, [x19, #592]
   1400017bc:	f9012e79 	str	x25, [x19, #600]
   1400017c0:	f9010a75 	str	x21, [x19, #528]
   1400017c4:	f9010e76 	str	x22, [x19, #536]
   1400017c8:	f9011277 	str	x23, [x19, #544]
   1400017cc:	f9011678 	str	x24, [x19, #552]
   1400017d0:	f9011a79 	str	x25, [x19, #560]
   1400017d4:	f901067f 	str	xzr, [x19, #520]
   1400017d8:	f9013268 	str	x8, [x19, #608]
   1400017dc:	a9474ff4 	ldp	x20, x19, [sp, #112]
   1400017e0:	a94657f6 	ldp	x22, x21, [sp, #96]
   1400017e4:	a9455ff8 	ldp	x24, x23, [sp, #80]
   1400017e8:	a94467fe 	ldp	x30, x25, [sp, #64]
   1400017ec:	910203ff 	add	sp, sp, #0x80
   1400017f0:	d65f03c0 	ret
   1400017f4:	f90007e2 	str	x2, [sp, #8]
   1400017f8:	d0000040 	adrp	x0, 0x14000b000
   1400017fc:	91000000 	add	x0, x0, #0x0
   140001800:	d0000043 	adrp	x3, 0x14000b000
   140001804:	910c6063 	add	x3, x3, #0x318
   140001808:	d0000044 	adrp	x4, 0x14000b000
   14000180c:	910e6084 	add	x4, x4, #0x398
   140001810:	910023e2 	add	x2, sp, #0x8
   140001814:	1400000a 	b	0x14000183c
   140001818:	f9400be8 	ldr	x8, [sp, #16]
   14000181c:	d0000040 	adrp	x0, 0x14000b000
   140001820:	91000000 	add	x0, x0, #0x0
   140001824:	d0000043 	adrp	x3, 0x14000b000
   140001828:	910c6063 	add	x3, x3, #0x318
   14000182c:	d0000044 	adrp	x4, 0x14000b000
   140001830:	910ec084 	add	x4, x4, #0x3b0
   140001834:	f9001fe8 	str	x8, [sp, #56]
   140001838:	9100e3e2 	add	x2, sp, #0x38
   14000183c:	52800561 	mov	w1, #0x2b                  	// #43
   140001840:	9400234e 	bl	0x14000a578
   140001844:	d4200020 	brk	#0x1
   140001848:	d103c3ff 	sub	sp, sp, #0xf0
   14000184c:	a90e4ff4 	stp	x20, x19, [sp, #224]
   140001850:	aa0003f3 	mov	x19, x0
   140001854:	91082000 	add	x0, x0, #0x208
   140001858:	a90977fe 	stp	x30, x29, [sp, #144]
   14000185c:	a90a6ffc 	stp	x28, x27, [sp, #160]
   140001860:	aa0803f4 	mov	x20, x8
   140001864:	a90b67fa 	stp	x26, x25, [sp, #176]
   140001868:	a90c5ff8 	stp	x24, x23, [sp, #192]
   14000186c:	a90d57f6 	stp	x22, x21, [sp, #208]
   140001870:	9400104d 	bl	0x1400059a4
   140001874:	f9410276 	ldr	x22, [x19, #512]
   140001878:	aa0003f5 	mov	x21, x0
   14000187c:	94000d76 	bl	0x140004e54
   140001880:	aa0003f7 	mov	x23, x0
   140001884:	f9408ea8 	ldr	x8, [x21, #280]
   140001888:	f0000081 	adrp	x1, 0x140014000
   14000188c:	9114a021 	add	x1, x1, #0x528
   140001890:	910183e2 	add	x2, sp, #0x60
   140001894:	aa1603e0 	mov	x0, x22
   140001898:	aa1703e3 	mov	x3, x23
   14000189c:	aa1f03e4 	mov	x4, xzr
   1400018a0:	52800405 	mov	w5, #0x20                  	// #32
   1400018a4:	f90033ff 	str	xzr, [sp, #96]
   1400018a8:	d63f0100 	blr	x8
   1400018ac:	b50010e0 	cbnz	x0, 0x140001ac8
   1400018b0:	f94033e0 	ldr	x0, [sp, #96]
   1400018b4:	b4001140 	cbz	x0, 0x140001adc
   1400018b8:	a9015ff6 	stp	x22, x23, [sp, #16]
   1400018bc:	f90013f5 	str	x21, [sp, #32]
   1400018c0:	a9007fe0 	stp	x0, xzr, [sp]
   1400018c4:	94000f25 	bl	0x140005558
   1400018c8:	aa0003f8 	mov	x24, x0
   1400018cc:	aa1503e0 	mov	x0, x21
   1400018d0:	94000d61 	bl	0x140004e54
   1400018d4:	aa0003f9 	mov	x25, x0
   1400018d8:	f9408ea8 	ldr	x8, [x21, #280]
   1400018dc:	f0000081 	adrp	x1, 0x140014000
   1400018e0:	91142021 	add	x1, x1, #0x508
   1400018e4:	910183e2 	add	x2, sp, #0x60
   1400018e8:	aa1803e0 	mov	x0, x24
   1400018ec:	aa1903e3 	mov	x3, x25
   1400018f0:	aa1f03e4 	mov	x4, xzr
   1400018f4:	52800405 	mov	w5, #0x20                  	// #32
   1400018f8:	f90033ff 	str	xzr, [sp, #96]
   1400018fc:	d63f0100 	blr	x8
   140001900:	b5000e80 	cbnz	x0, 0x140001ad0
   140001904:	f94033e0 	ldr	x0, [sp, #96]
   140001908:	94000ef8 	bl	0x1400054e8
   14000190c:	b4000e40 	cbz	x0, 0x140001ad4
   140001910:	a903e3ff 	stp	xzr, x24, [sp, #56]
   140001914:	a904d7f9 	stp	x25, x21, [sp, #72]
   140001918:	a90287e0 	stp	x0, x1, [sp, #40]
   14000191c:	97fffdb9 	bl	0x140001000
   140001920:	f9405ea8 	ldr	x8, [x21, #184]
   140001924:	f90033e0 	str	x0, [sp, #96]
   140001928:	f0000080 	adrp	x0, 0x140014000
   14000192c:	9114e000 	add	x0, x0, #0x538
   140001930:	910183e1 	add	x1, sp, #0x60
   140001934:	910163e2 	add	x2, sp, #0x58
   140001938:	d63f0100 	blr	x8
   14000193c:	b5000b00 	cbnz	x0, 0x140001a9c
   140001940:	f94033e0 	ldr	x0, [sp, #96]
   140001944:	94000ee9 	bl	0x1400054e8
   140001948:	f9402ffa 	ldr	x26, [sp, #88]
   14000194c:	b4000aba 	cbz	x26, 0x140001aa0
   140001950:	aa1503e0 	mov	x0, x21
   140001954:	94000d40 	bl	0x140004e54
   140001958:	aa0003fb 	mov	x27, x0
   14000195c:	f9408ea8 	ldr	x8, [x21, #280]
   140001960:	f0000081 	adrp	x1, 0x140014000
   140001964:	9114e021 	add	x1, x1, #0x538
   140001968:	910163e2 	add	x2, sp, #0x58
   14000196c:	aa1a03e0 	mov	x0, x26
   140001970:	aa1b03e3 	mov	x3, x27
   140001974:	aa1f03e4 	mov	x4, xzr
   140001978:	52800405 	mov	w5, #0x20                  	// #32
   14000197c:	f9002fff 	str	xzr, [sp, #88]
   140001980:	d63f0100 	blr	x8
   140001984:	b50008c0 	cbnz	x0, 0x140001a9c
   140001988:	f9402fe0 	ldr	x0, [sp, #88]
   14000198c:	b40008a0 	cbz	x0, 0x140001aa0
   140001990:	910183e8 	add	x8, sp, #0x60
   140001994:	94000e15 	bl	0x1400051e8
   140001998:	a94673fd 	ldp	x29, x28, [sp, #96]
   14000199c:	f0000081 	adrp	x1, 0x140014000
   1400019a0:	91142021 	add	x1, x1, #0x508
   1400019a4:	f94092a8 	ldr	x8, [x21, #288]
   1400019a8:	aa1803e0 	mov	x0, x24
   1400019ac:	aa1903e2 	mov	x2, x25
   1400019b0:	aa1f03e3 	mov	x3, xzr
   1400019b4:	d63f0100 	blr	x8
   1400019b8:	f9002fe0 	str	x0, [sp, #88]
   1400019bc:	b50009e0 	cbnz	x0, 0x140001af8
   1400019c0:	f94092a8 	ldr	x8, [x21, #288]
   1400019c4:	f0000081 	adrp	x1, 0x140014000
   1400019c8:	9114a021 	add	x1, x1, #0x528
   1400019cc:	aa1603e0 	mov	x0, x22
   1400019d0:	aa1703e2 	mov	x2, x23
   1400019d4:	aa1f03e3 	mov	x3, xzr
   1400019d8:	d63f0100 	blr	x8
   1400019dc:	f90017e0 	str	x0, [sp, #40]
   1400019e0:	b5000660 	cbnz	x0, 0x140001aac
   1400019e4:	f94092a8 	ldr	x8, [x21, #288]
   1400019e8:	f0000081 	adrp	x1, 0x140014000
   1400019ec:	9114e021 	add	x1, x1, #0x538
   1400019f0:	aa1a03e0 	mov	x0, x26
   1400019f4:	aa1b03e2 	mov	x2, x27
   1400019f8:	aa1f03e3 	mov	x3, xzr
   1400019fc:	d63f0100 	blr	x8
   140001a00:	f90017e0 	str	x0, [sp, #40]
   140001a04:	b5000540 	cbnz	x0, 0x140001aac
   140001a08:	b50006bd 	cbnz	x29, 0x140001adc
   140001a0c:	d0000040 	adrp	x0, 0x14000b000
   140001a10:	910f2000 	add	x0, x0, #0x3c8
   140001a14:	52800161 	mov	w1, #0xb                   	// #11
   140001a18:	f9400795 	ldr	x21, [x28, #8]
   140001a1c:	f90003fc 	str	x28, [sp]
   140001a20:	f90033ff 	str	xzr, [sp, #96]
   140001a24:	97fffd77 	bl	0x140001000
   140001a28:	aa0003e2 	mov	x2, x0
   140001a2c:	910183e1 	add	x1, sp, #0x60
   140001a30:	aa1c03e0 	mov	x0, x28
   140001a34:	52800023 	mov	w3, #0x1                   	// #1
   140001a38:	aa1f03e4 	mov	x4, xzr
   140001a3c:	d63f02a0 	blr	x21
   140001a40:	b5000700 	cbnz	x0, 0x140001b20
   140001a44:	f94033e0 	ldr	x0, [sp, #96]
   140001a48:	97fffd6e 	bl	0x140001000
   140001a4c:	910183e8 	add	x8, sp, #0x60
   140001a50:	94000ec4 	bl	0x140005560
   140001a54:	f94033e8 	ldr	x8, [sp, #96]
   140001a58:	f100091f 	cmp	x8, #0x2
   140001a5c:	540007a0 	b.eq	0x140001b50  // b.none
   140001a60:	b5000908 	cbnz	x8, 0x140001b80
   140001a64:	f94037e0 	ldr	x0, [sp, #104]
   140001a68:	aa1403e8 	mov	x8, x20
   140001a6c:	aa1303e1 	mov	x1, x19
   140001a70:	94000a8d 	bl	0x1400044a4
   140001a74:	910003e0 	mov	x0, sp
   140001a78:	94000ee7 	bl	0x140005614
   140001a7c:	a94e4ff4 	ldp	x20, x19, [sp, #224]
   140001a80:	a94d57f6 	ldp	x22, x21, [sp, #208]
   140001a84:	a94c5ff8 	ldp	x24, x23, [sp, #192]
   140001a88:	a94b67fa 	ldp	x26, x25, [sp, #176]
   140001a8c:	a94a6ffc 	ldp	x28, x27, [sp, #160]
   140001a90:	a94977fe 	ldp	x30, x29, [sp, #144]
   140001a94:	9103c3ff 	add	sp, sp, #0xf0
   140001a98:	d65f03c0 	ret
   140001a9c:	97fffd59 	bl	0x140001000
   140001aa0:	9100a3e0 	add	x0, sp, #0x28
   140001aa4:	94000be5 	bl	0x140004a38
   140001aa8:	1400000b 	b	0x140001ad4
   140001aac:	f9003bff 	str	xzr, [sp, #112]
   140001ab0:	f0000082 	adrp	x2, 0x140014000
   140001ab4:	91152042 	add	x2, x2, #0x548
   140001ab8:	f0000084 	adrp	x4, 0x140014000
   140001abc:	9116a084 	add	x4, x4, #0x5a8
   140001ac0:	9100a3e1 	add	x1, sp, #0x28
   140001ac4:	14000013 	b	0x140001b10
   140001ac8:	97fffd4e 	bl	0x140001000
   140001acc:	14000004 	b	0x140001adc
   140001ad0:	97fffd4c 	bl	0x140001000
   140001ad4:	910003e0 	mov	x0, sp
   140001ad8:	94000bc0 	bl	0x1400049d8
   140001adc:	d0000040 	adrp	x0, 0x14000b000
   140001ae0:	9109e000 	add	x0, x0, #0x278
   140001ae4:	d0000042 	adrp	x2, 0x14000b000
   140001ae8:	9111e042 	add	x2, x2, #0x478
   140001aec:	52800561 	mov	w1, #0x2b                  	// #43
   140001af0:	94002225 	bl	0x14000a384
   140001af4:	d4200020 	brk	#0x1
   140001af8:	f0000082 	adrp	x2, 0x140014000
   140001afc:	91152042 	add	x2, x2, #0x548
   140001b00:	f0000084 	adrp	x4, 0x140014000
   140001b04:	9116a084 	add	x4, x4, #0x5a8
   140001b08:	910163e1 	add	x1, sp, #0x58
   140001b0c:	f9003bff 	str	xzr, [sp, #112]
   140001b10:	910183e3 	add	x3, sp, #0x60
   140001b14:	2a1f03e0 	mov	w0, wzr
   140001b18:	940021e0 	bl	0x14000a298
   140001b1c:	d4200020 	brk	#0x1
   140001b20:	97fffd38 	bl	0x140001000
   140001b24:	f90033e0 	str	x0, [sp, #96]
   140001b28:	d0000040 	adrp	x0, 0x14000b000
   140001b2c:	910f7800 	add	x0, x0, #0x3de
   140001b30:	d0000043 	adrp	x3, 0x14000b000
   140001b34:	910c6063 	add	x3, x3, #0x318
   140001b38:	d0000044 	adrp	x4, 0x14000b000
   140001b3c:	9110e084 	add	x4, x4, #0x438
   140001b40:	910183e2 	add	x2, sp, #0x60
   140001b44:	528002a1 	mov	w1, #0x15                  	// #21
   140001b48:	9400228c 	bl	0x14000a578
   140001b4c:	d4200020 	brk	#0x1
   140001b50:	f94037e8 	ldr	x8, [sp, #104]
   140001b54:	d0000040 	adrp	x0, 0x14000b000
   140001b58:	91000000 	add	x0, x0, #0x0
   140001b5c:	d0000043 	adrp	x3, 0x14000b000
   140001b60:	910c6063 	add	x3, x3, #0x318
   140001b64:	d0000044 	adrp	x4, 0x14000b000
   140001b68:	9110e084 	add	x4, x4, #0x438
   140001b6c:	9100a3e2 	add	x2, sp, #0x28
   140001b70:	52800561 	mov	w1, #0x2b                  	// #43
   140001b74:	f90017e8 	str	x8, [sp, #40]
   140001b78:	94002280 	bl	0x14000a578
   140001b7c:	d4200020 	brk	#0x1
   140001b80:	d0000040 	adrp	x0, 0x14000b000
   140001b84:	91114000 	add	x0, x0, #0x450
   140001b88:	d0000042 	adrp	x2, 0x14000b000
   140001b8c:	91118042 	add	x2, x2, #0x460
   140001b90:	528001c1 	mov	w1, #0xe                   	// #14
   140001b94:	940021fc 	bl	0x14000a384
   140001b98:	d4200020 	brk	#0x1
   140001b9c:	f81c0ffe 	str	x30, [sp, #-64]!
   140001ba0:	52840001 	mov	w1, #0x2000                	// #8192
   140001ba4:	a9015ff8 	stp	x24, x23, [sp, #16]
   140001ba8:	72a00021 	movk	w1, #0x1, lsl #16
   140001bac:	a90257f6 	stp	x22, x21, [sp, #32]
   140001bb0:	a9034ff4 	stp	x20, x19, [sp, #48]
   140001bb4:	aa0003f3 	mov	x19, x0
   140001bb8:	94000046 	bl	0x140001cd0
   140001bbc:	b1404808 	adds	x8, x0, #0x12, lsl #12
   140001bc0:	b27fcbf7 	mov	x23, #0xffffffffffffe       	// #4503599627370494
   140001bc4:	da9f3108 	csinv	x8, x8, xzr, cc	// cc = lo, ul, last
   140001bc8:	d34cfc09 	lsr	x9, x0, #12
   140001bcc:	9240bd08 	and	x8, x8, #0xffffffffffff
   140001bd0:	f1000508 	subs	x8, x8, #0x1
   140001bd4:	9a8833e8 	csel	x8, xzr, x8, cc	// cc = lo, ul, last
   140001bd8:	eb17013f 	cmp	x9, x23
   140001bdc:	d34cfd18 	lsr	x24, x8, #12
   140001be0:	9a973128 	csel	x8, x9, x23, cc	// cc = lo, ul, last
   140001be4:	eb18011f 	cmp	x8, x24
   140001be8:	54000262 	b.cs	0x140001c34  // b.hs, b.nlast
   140001bec:	91000514 	add	x20, x8, #0x1
   140001bf0:	91080275 	add	x21, x19, #0x200
   140001bf4:	91098276 	add	x22, x19, #0x260
   140001bf8:	aa1503e0 	mov	x0, x21
   140001bfc:	940005ca 	bl	0x140003324
   140001c00:	b40003e0 	cbz	x0, 0x140001c7c
   140001c04:	d2800023 	mov	x3, #0x1                   	// #1
   140001c08:	aa0103e2 	mov	x2, x1
   140001c0c:	aa1603e0 	mov	x0, x22
   140001c10:	aa1403e1 	mov	x1, x20
   140001c14:	f2e00c03 	movk	x3, #0x60, lsl #48
   140001c18:	aa1503e4 	mov	x4, x21
   140001c1c:	940000bd 	bl	0x140001f10
   140001c20:	eb18029f 	cmp	x20, x24
   140001c24:	9a942694 	cinc	x20, x20, cc	// cc = lo, ul, last
   140001c28:	54000062 	b.cs	0x140001c34  // b.hs, b.nlast
   140001c2c:	eb18029f 	cmp	x20, x24
   140001c30:	54fffe49 	b.ls	0x140001bf8  // b.plast
   140001c34:	f0000008 	adrp	x8, 0x140004000
   140001c38:	912fd108 	add	x8, x8, #0xbf4
   140001c3c:	d34cbd01 	ubfx	x1, x8, #12, #36
   140001c40:	91098260 	add	x0, x19, #0x260
   140001c44:	91080264 	add	x4, x19, #0x200
   140001c48:	aa0103e2 	mov	x2, x1
   140001c4c:	52800023 	mov	w3, #0x1                   	// #1
   140001c50:	940000b0 	bl	0x140001f10
   140001c54:	eb17031f 	cmp	x24, x23
   140001c58:	9a973308 	csel	x8, x24, x23, cc	// cc = lo, ul, last
   140001c5c:	a9434ff4 	ldp	x20, x19, [sp, #48]
   140001c60:	d374cd08 	lsl	x8, x8, #12
   140001c64:	a94257f6 	ldp	x22, x21, [sp, #32]
   140001c68:	91400508 	add	x8, x8, #0x1, lsl #12
   140001c6c:	a9415ff8 	ldp	x24, x23, [sp, #16]
   140001c70:	92748d00 	and	x0, x8, #0xfffffffff000
   140001c74:	f84407fe 	ldr	x30, [sp], #64
   140001c78:	d65f03c0 	ret
   140001c7c:	d0000040 	adrp	x0, 0x14000b000
   140001c80:	9109e000 	add	x0, x0, #0x278
   140001c84:	d0000042 	adrp	x2, 0x14000b000
   140001c88:	91136042 	add	x2, x2, #0x4d8
   140001c8c:	52800561 	mov	w1, #0x2b                  	// #43
   140001c90:	940021bd 	bl	0x14000a384
   140001c94:	d4200020 	brk	#0x1
   140001c98:	f9400000 	ldr	x0, [x0]
   140001c9c:	1400197e 	b	0x140008294
   140001ca0:	f9400008 	ldr	x8, [x0]
   140001ca4:	aa0103e0 	mov	x0, x1
   140001ca8:	a9bf23fe 	stp	x30, x8, [sp, #-16]!
   140001cac:	d0000041 	adrp	x1, 0x14000b000
   140001cb0:	9129e021 	add	x1, x1, #0xa78
   140001cb4:	d0000044 	adrp	x4, 0x14000b000
   140001cb8:	912a2084 	add	x4, x4, #0xa88
   140001cbc:	910023e3 	add	x3, sp, #0x8
   140001cc0:	528001c2 	mov	w2, #0xe                   	// #14
   140001cc4:	94001796 	bl	0x140007b1c
   140001cc8:	f84107fe 	ldr	x30, [sp], #16
   140001ccc:	d65f03c0 	ret
   140001cd0:	b2409be8 	mov	x8, #0x7fffffffff          	// #549755813887
   140001cd4:	8b080028 	add	x8, x1, x8
   140001cd8:	d367fd08 	lsr	x8, x8, #39
   140001cdc:	b4000808 	cbz	x8, 0x140001ddc
   140001ce0:	f108011f 	cmp	x8, #0x200
   140001ce4:	54000208 	b.hi	0x140001d24  // b.pmore
   140001ce8:	aa1f03e9 	mov	x9, xzr
   140001cec:	5280400a 	mov	w10, #0x200                 	// #512
   140001cf0:	aa0003eb 	mov	x11, x0
   140001cf4:	aa1f03ed 	mov	x13, xzr
   140001cf8:	9100056c 	add	x12, x11, #0x1
   140001cfc:	d100054a 	sub	x10, x10, #0x1
   140001d00:	eb0d011f 	cmp	x8, x13
   140001d04:	540001e0 	b.eq	0x140001d40  // b.none
   140001d08:	386d696e 	ldrb	w14, [x11, x13]
   140001d0c:	910005ad 	add	x13, x13, #0x1
   140001d10:	34ffff8e 	cbz	w14, 0x140001d00
   140001d14:	91000529 	add	x9, x9, #0x1
   140001d18:	aa0c03eb 	mov	x11, x12
   140001d1c:	eb0a011f 	cmp	x8, x10
   140001d20:	54fffea9 	b.ls	0x140001cf4  // b.plast
   140001d24:	d0000040 	adrp	x0, 0x14000b000
   140001d28:	91180000 	add	x0, x0, #0x600
   140001d2c:	d0000042 	adrp	x2, 0x14000b000
   140001d30:	911a2042 	add	x2, x2, #0x688
   140001d34:	528003e1 	mov	w1, #0x1f                  	// #31
   140001d38:	94002185 	bl	0x14000a34c
   140001d3c:	d4200020 	brk	#0x1
   140001d40:	5280400a 	mov	w10, #0x200                 	// #512
   140001d44:	d100050c 	sub	x12, x8, #0x1
   140001d48:	eb09014a 	subs	x10, x10, x9
   140001d4c:	aa1f03eb 	mov	x11, xzr
   140001d50:	9a8a33ea 	csel	x10, xzr, x10, cc	// cc = lo, ul, last
   140001d54:	eb0a019f 	cmp	x12, x10
   140001d58:	9a8a318c 	csel	x12, x12, x10, cc	// cc = lo, ul, last
   140001d5c:	f1003d9f 	cmp	x12, #0xf
   140001d60:	54000189 	b.ls	0x140001d90  // b.plast
   140001d64:	9100058b 	add	x11, x12, #0x1
   140001d68:	5280020d 	mov	w13, #0x10                  	// #16
   140001d6c:	f2400d6c 	ands	x12, x11, #0xf
   140001d70:	9a8c01ac 	csel	x12, x13, x12, eq	// eq = none
   140001d74:	cb0c016b 	sub	x11, x11, x12
   140001d78:	8b09000c 	add	x12, x0, x9
   140001d7c:	4f00e420 	movi	v0.16b, #0x1
   140001d80:	aa0b03ed 	mov	x13, x11
   140001d84:	f10041ad 	subs	x13, x13, #0x10
   140001d88:	3c810580 	str	q0, [x12], #16
   140001d8c:	54ffffc1 	b.ne	0x140001d84  // b.any
   140001d90:	8b09000c 	add	x12, x0, x9
   140001d94:	5280002d 	mov	w13, #0x1                   	// #1
   140001d98:	eb0b015f 	cmp	x10, x11
   140001d9c:	54000140 	b.eq	0x140001dc4  // b.none
   140001da0:	9100056e 	add	x14, x11, #0x1
   140001da4:	382b698d 	strb	w13, [x12, x11]
   140001da8:	aa0e03eb 	mov	x11, x14
   140001dac:	eb0e011f 	cmp	x8, x14
   140001db0:	54ffff41 	b.ne	0x140001d98  // b.any
   140001db4:	f104013f 	cmp	x9, #0x100
   140001db8:	54000202 	b.cs	0x140001df8  // b.hs, b.nlast
   140001dbc:	d3596120 	lsl	x0, x9, #39
   140001dc0:	d65f03c0 	ret
   140001dc4:	8b0b0120 	add	x0, x9, x11
   140001dc8:	d0000042 	adrp	x2, 0x14000b000
   140001dcc:	9119c042 	add	x2, x2, #0x670
   140001dd0:	52804001 	mov	w1, #0x200                 	// #512
   140001dd4:	94002179 	bl	0x14000a3b8
   140001dd8:	d4200020 	brk	#0x1
   140001ddc:	d0000040 	adrp	x0, 0x14000b000
   140001de0:	91162000 	add	x0, x0, #0x588
   140001de4:	d0000042 	adrp	x2, 0x14000b000
   140001de8:	9117a042 	add	x2, x2, #0x5e8
   140001dec:	52800181 	mov	w1, #0xc                   	// #12
   140001df0:	94002157 	bl	0x14000a34c
   140001df4:	d4200020 	brk	#0x1
   140001df8:	d0000040 	adrp	x0, 0x14000b000
   140001dfc:	91158000 	add	x0, x0, #0x560
   140001e00:	d0000042 	adrp	x2, 0x14000b000
   140001e04:	91152042 	add	x2, x2, #0x548
   140001e08:	52800421 	mov	w1, #0x21                  	// #33
   140001e0c:	9400215e 	bl	0x14000a384
   140001e10:	d4200020 	brk	#0x1
   140001e14:	d101c3ff 	sub	sp, sp, #0x70
   140001e18:	d00000aa 	adrp	x10, 0x140017000
   140001e1c:	a9064ffe 	stp	x30, x19, [sp, #96]
   140001e20:	aa0003f3 	mov	x19, x0
   140001e24:	f940014a 	ldr	x10, [x10]
   140001e28:	f9400828 	ldr	x8, [x1, #16]
   140001e2c:	f9401429 	ldr	x9, [x1, #40]
   140001e30:	9240bd0b 	and	x11, x8, #0xffffffffffff
   140001e34:	d34cbd08 	ubfx	x8, x8, #12, #36
   140001e38:	ab090169 	adds	x9, x11, x9
   140001e3c:	da9f3129 	csinv	x9, x9, xzr, cc	// cc = lo, ul, last
   140001e40:	9240bd29 	and	x9, x9, #0xffffffffffff
   140001e44:	f1000529 	subs	x9, x9, #0x1
   140001e48:	9a8933e9 	csel	x9, xzr, x9, cc	// cc = lo, ul, last
   140001e4c:	d34cfd29 	lsr	x9, x9, #12
   140001e50:	a90027e8 	stp	x8, x9, [sp]
   140001e54:	f940014a 	ldr	x10, [x10]
   140001e58:	f100095f 	cmp	x10, #0x2
   140001e5c:	540002e9 	b.ls	0x140001eb8  // b.plast
   140001e60:	910003e8 	mov	x8, sp
   140001e64:	d0000009 	adrp	x9, 0x140003000
   140001e68:	91114129 	add	x9, x9, #0x450
   140001e6c:	910023ea 	add	x10, sp, #0x8
   140001e70:	d000004b 	adrp	x11, 0x14000b000
   140001e74:	911b416b 	add	x11, x11, #0x6d0
   140001e78:	d0000042 	adrp	x2, 0x14000b000
   140001e7c:	911e2042 	add	x2, x2, #0x788
   140001e80:	a90427e8 	stp	x8, x9, [sp, #64]
   140001e84:	52800048 	mov	w8, #0x2                   	// #2
   140001e88:	a90527ea 	stp	x10, x9, [sp, #80]
   140001e8c:	d0000049 	adrp	x9, 0x14000b000
   140001e90:	911bc129 	add	x9, x9, #0x6f0
   140001e94:	910103ea 	add	x10, sp, #0x40
   140001e98:	910043e0 	add	x0, sp, #0x10
   140001e9c:	52800061 	mov	w1, #0x3                   	// #3
   140001ea0:	aa1f03e3 	mov	x3, xzr
   140001ea4:	a90223eb 	stp	x11, x8, [sp, #32]
   140001ea8:	a90123e9 	stp	x9, x8, [sp, #16]
   140001eac:	a90323ea 	stp	x10, x8, [sp, #48]
   140001eb0:	94000b89 	bl	0x140004cd4
   140001eb4:	a94027e8 	ldp	x8, x9, [sp]
   140001eb8:	d35b8d00 	ubfx	x0, x8, #27, #9
   140001ebc:	d35b8d28 	ubfx	x8, x9, #27, #9
   140001ec0:	eb08001f 	cmp	x0, x8
   140001ec4:	54000168 	b.hi	0x140001ef0  // b.pmore
   140001ec8:	52800029 	mov	w9, #0x1                   	// #1
   140001ecc:	f108001f 	cmp	x0, #0x200
   140001ed0:	54000162 	b.cs	0x140001efc  // b.hs, b.nlast
   140001ed4:	eb08001f 	cmp	x0, x8
   140001ed8:	38206a69 	strb	w9, [x19, x0]
   140001edc:	9a80240a 	cinc	x10, x0, cc	// cc = lo, ul, last
   140001ee0:	54000082 	b.cs	0x140001ef0  // b.hs, b.nlast
   140001ee4:	aa0a03e0 	mov	x0, x10
   140001ee8:	eb08015f 	cmp	x10, x8
   140001eec:	54ffff09 	b.ls	0x140001ecc  // b.plast
   140001ef0:	a9464ffe 	ldp	x30, x19, [sp, #96]
   140001ef4:	9101c3ff 	add	sp, sp, #0x70
   140001ef8:	d65f03c0 	ret
   140001efc:	d0000042 	adrp	x2, 0x14000b000
   140001f00:	911f0042 	add	x2, x2, #0x7c0
   140001f04:	52804001 	mov	w1, #0x200                 	// #512
   140001f08:	9400212c 	bl	0x14000a3b8
   140001f0c:	d4200020 	brk	#0x1
   140001f10:	f81c0ffe 	str	x30, [sp, #-64]!
   140001f14:	a9015ff8 	stp	x24, x23, [sp, #16]
   140001f18:	d35b8c37 	ubfx	x23, x1, #27, #9
   140001f1c:	f9400018 	ldr	x24, [x0]
   140001f20:	a90257f6 	stp	x22, x21, [sp, #32]
   140001f24:	a9034ff4 	stp	x20, x19, [sp, #48]
   140001f28:	aa0403f5 	mov	x21, x4
   140001f2c:	f8777b08 	ldr	x8, [x24, x23, lsl #3]
   140001f30:	aa0103f4 	mov	x20, x1
   140001f34:	aa0203f3 	mov	x19, x2
   140001f38:	b40001c8 	cbz	x8, 0x140001f70
   140001f3c:	d3526a98 	ubfx	x24, x20, #18, #9
   140001f40:	92749d17 	and	x23, x8, #0xffffffffff000
   140001f44:	aa1703e8 	mov	x8, x23
   140001f48:	b37d2308 	bfi	x8, x24, #3, #9
   140001f4c:	f9400108 	ldr	x8, [x8]
   140001f50:	b4000328 	cbz	x8, 0x140001fb4
   140001f54:	d3494697 	ubfx	x23, x20, #9, #9
   140001f58:	92749d16 	and	x22, x8, #0xffffffffff000
   140001f5c:	aa1603e8 	mov	x8, x22
   140001f60:	b37d22e8 	bfi	x8, x23, #3, #9
   140001f64:	f9400108 	ldr	x8, [x8]
   140001f68:	b50005e8 	cbnz	x8, 0x140002024
   140001f6c:	14000023 	b	0x140001ff8
   140001f70:	aa1503e0 	mov	x0, x21
   140001f74:	940004ec 	bl	0x140003324
   140001f78:	b40006e0 	cbz	x0, 0x140002054
   140001f7c:	aa0103f6 	mov	x22, x1
   140001f80:	d3748c20 	ubfiz	x0, x1, #12, #36
   140001f84:	2a1f03e1 	mov	w1, wzr
   140001f88:	52820002 	mov	w2, #0x1000                	// #4096
   140001f8c:	94001ebc 	bl	0x140009a7c
   140001f90:	5280e1e8 	mov	w8, #0x70f                 	// #1807
   140001f94:	b3748ec8 	bfi	x8, x22, #12, #36
   140001f98:	f8377b08 	str	x8, [x24, x23, lsl #3]
   140001f9c:	d3526a98 	ubfx	x24, x20, #18, #9
   140001fa0:	92749d17 	and	x23, x8, #0xffffffffff000
   140001fa4:	aa1703e8 	mov	x8, x23
   140001fa8:	b37d2308 	bfi	x8, x24, #3, #9
   140001fac:	f9400108 	ldr	x8, [x8]
   140001fb0:	b5fffd28 	cbnz	x8, 0x140001f54
   140001fb4:	aa1503e0 	mov	x0, x21
   140001fb8:	940004db 	bl	0x140003324
   140001fbc:	b40004c0 	cbz	x0, 0x140002054
   140001fc0:	aa0103f6 	mov	x22, x1
   140001fc4:	d3748c20 	ubfiz	x0, x1, #12, #36
   140001fc8:	2a1f03e1 	mov	w1, wzr
   140001fcc:	52820002 	mov	w2, #0x1000                	// #4096
   140001fd0:	94001eab 	bl	0x140009a7c
   140001fd4:	5280e1e8 	mov	w8, #0x70f                 	// #1807
   140001fd8:	b3748ec8 	bfi	x8, x22, #12, #36
   140001fdc:	f8387ae8 	str	x8, [x23, x24, lsl #3]
   140001fe0:	d3494697 	ubfx	x23, x20, #9, #9
   140001fe4:	92749d16 	and	x22, x8, #0xffffffffff000
   140001fe8:	aa1603e8 	mov	x8, x22
   140001fec:	b37d22e8 	bfi	x8, x23, #3, #9
   140001ff0:	f9400108 	ldr	x8, [x8]
   140001ff4:	b5000188 	cbnz	x8, 0x140002024
   140001ff8:	aa1503e0 	mov	x0, x21
   140001ffc:	940004ca 	bl	0x140003324
   140002000:	b40002a0 	cbz	x0, 0x140002054
   140002004:	aa0103f5 	mov	x21, x1
   140002008:	d3748c20 	ubfiz	x0, x1, #12, #36
   14000200c:	2a1f03e1 	mov	w1, wzr
   140002010:	52820002 	mov	w2, #0x1000                	// #4096
   140002014:	94001e9a 	bl	0x140009a7c
   140002018:	5280e1e8 	mov	w8, #0x70f                 	// #1807
   14000201c:	b3748ea8 	bfi	x8, x21, #12, #36
   140002020:	f8377ac8 	str	x8, [x22, x23, lsl #3]
   140002024:	92402289 	and	x9, x20, #0x1ff
   140002028:	92749d08 	and	x8, x8, #0xffffffffff000
   14000202c:	5280e1ea 	mov	w10, #0x70f                 	// #1807
   140002030:	b3748e6a 	bfi	x10, x19, #12, #36
   140002034:	b37d2128 	bfi	x8, x9, #3, #9
   140002038:	f900010a 	str	x10, [x8]
   14000203c:	d5033fdf 	isb
   140002040:	a9434ff4 	ldp	x20, x19, [sp, #48]
   140002044:	a94257f6 	ldp	x22, x21, [sp, #32]
   140002048:	a9415ff8 	ldp	x24, x23, [sp, #16]
   14000204c:	f84407fe 	ldr	x30, [sp], #64
   140002050:	d65f03c0 	ret
   140002054:	b0000040 	adrp	x0, 0x14000b000
   140002058:	911a8000 	add	x0, x0, #0x6a0
   14000205c:	b0000042 	adrp	x2, 0x14000b000
   140002060:	91298042 	add	x2, x2, #0xa60
   140002064:	52800561 	mov	w1, #0x2b                  	// #43
   140002068:	940020c7 	bl	0x14000a384
   14000206c:	d4200020 	brk	#0x1
   140002070:	f81c0ffe 	str	x30, [sp, #-64]!
   140002074:	a90257f6 	stp	x22, x21, [sp, #32]
   140002078:	d35b8c36 	ubfx	x22, x1, #27, #9
   14000207c:	a9015ff8 	stp	x24, x23, [sp, #16]
   140002080:	f9400017 	ldr	x23, [x0]
   140002084:	a9034ff4 	stp	x20, x19, [sp, #48]
   140002088:	aa0403f5 	mov	x21, x4
   14000208c:	f8767ae8 	ldr	x8, [x23, x22, lsl #3]
   140002090:	aa0103f4 	mov	x20, x1
   140002094:	aa0203f3 	mov	x19, x2
   140002098:	b40001c8 	cbz	x8, 0x1400020d0
   14000209c:	d3526a97 	ubfx	x23, x20, #18, #9
   1400020a0:	92749d16 	and	x22, x8, #0xffffffffff000
   1400020a4:	aa1603e8 	mov	x8, x22
   1400020a8:	b37d22e8 	bfi	x8, x23, #3, #9
   1400020ac:	f9400108 	ldr	x8, [x8]
   1400020b0:	b40003e8 	cbz	x8, 0x14000212c
   1400020b4:	d3494697 	ubfx	x23, x20, #9, #9
   1400020b8:	92749d16 	and	x22, x8, #0xffffffffff000
   1400020bc:	aa1603e8 	mov	x8, x22
   1400020c0:	b37d22e8 	bfi	x8, x23, #3, #9
   1400020c4:	f9400108 	ldr	x8, [x8]
   1400020c8:	b5000828 	cbnz	x8, 0x1400021cc
   1400020cc:	1400002f 	b	0x140002188
   1400020d0:	f94002a0 	ldr	x0, [x21]
   1400020d4:	94000e34 	bl	0x1400059a4
   1400020d8:	aa1f03e1 	mov	x1, xzr
   1400020dc:	12800003 	mov	w3, #0xffffffff            	// #-1
   1400020e0:	52800024 	mov	w4, #0x1                   	// #1
   1400020e4:	94000b6a 	bl	0x140004e8c
   1400020e8:	f100001f 	cmp	x0, #0x0
   1400020ec:	d34cbc28 	ubfx	x8, x1, #12, #36
   1400020f0:	9a880118 	csel	x24, x8, x8, eq	// eq = none
   1400020f4:	b5000840 	cbnz	x0, 0x1400021fc
   1400020f8:	d3748f00 	ubfiz	x0, x24, #12, #36
   1400020fc:	2a1f03e1 	mov	w1, wzr
   140002100:	52820002 	mov	w2, #0x1000                	// #4096
   140002104:	94001e5e 	bl	0x140009a7c
   140002108:	5280e1e8 	mov	w8, #0x70f                 	// #1807
   14000210c:	b3748f08 	bfi	x8, x24, #12, #36
   140002110:	f8367ae8 	str	x8, [x23, x22, lsl #3]
   140002114:	d3526a97 	ubfx	x23, x20, #18, #9
   140002118:	92749d16 	and	x22, x8, #0xffffffffff000
   14000211c:	aa1603e8 	mov	x8, x22
   140002120:	b37d22e8 	bfi	x8, x23, #3, #9
   140002124:	f9400108 	ldr	x8, [x8]
   140002128:	b5fffc68 	cbnz	x8, 0x1400020b4
   14000212c:	f94002a0 	ldr	x0, [x21]
   140002130:	94000e1d 	bl	0x1400059a4
   140002134:	aa1f03e1 	mov	x1, xzr
   140002138:	12800003 	mov	w3, #0xffffffff            	// #-1
   14000213c:	52800024 	mov	w4, #0x1                   	// #1
   140002140:	94000b53 	bl	0x140004e8c
   140002144:	f100001f 	cmp	x0, #0x0
   140002148:	d34cbc28 	ubfx	x8, x1, #12, #36
   14000214c:	9a880118 	csel	x24, x8, x8, eq	// eq = none
   140002150:	b5000560 	cbnz	x0, 0x1400021fc
   140002154:	d3748f00 	ubfiz	x0, x24, #12, #36
   140002158:	2a1f03e1 	mov	w1, wzr
   14000215c:	52820002 	mov	w2, #0x1000                	// #4096
   140002160:	94001e47 	bl	0x140009a7c
   140002164:	5280e1e8 	mov	w8, #0x70f                 	// #1807
   140002168:	b3748f08 	bfi	x8, x24, #12, #36
   14000216c:	f8377ac8 	str	x8, [x22, x23, lsl #3]
   140002170:	d3494697 	ubfx	x23, x20, #9, #9
   140002174:	92749d16 	and	x22, x8, #0xffffffffff000
   140002178:	aa1603e8 	mov	x8, x22
   14000217c:	b37d22e8 	bfi	x8, x23, #3, #9
   140002180:	f9400108 	ldr	x8, [x8]
   140002184:	b5000248 	cbnz	x8, 0x1400021cc
   140002188:	f94002a0 	ldr	x0, [x21]
   14000218c:	94000e06 	bl	0x1400059a4
   140002190:	aa1f03e1 	mov	x1, xzr
   140002194:	12800003 	mov	w3, #0xffffffff            	// #-1
   140002198:	52800024 	mov	w4, #0x1                   	// #1
   14000219c:	94000b3c 	bl	0x140004e8c
   1400021a0:	f100001f 	cmp	x0, #0x0
   1400021a4:	d34cbc28 	ubfx	x8, x1, #12, #36
   1400021a8:	9a880115 	csel	x21, x8, x8, eq	// eq = none
   1400021ac:	b5000280 	cbnz	x0, 0x1400021fc
   1400021b0:	d3748ea0 	ubfiz	x0, x21, #12, #36
   1400021b4:	2a1f03e1 	mov	w1, wzr
   1400021b8:	52820002 	mov	w2, #0x1000                	// #4096
   1400021bc:	94001e30 	bl	0x140009a7c
   1400021c0:	5280e1e8 	mov	w8, #0x70f                 	// #1807
   1400021c4:	b3748ea8 	bfi	x8, x21, #12, #36
   1400021c8:	f8377ac8 	str	x8, [x22, x23, lsl #3]
   1400021cc:	92402289 	and	x9, x20, #0x1ff
   1400021d0:	92749d08 	and	x8, x8, #0xffffffffff000
   1400021d4:	5280e1ea 	mov	w10, #0x70f                 	// #1807
   1400021d8:	b3748e6a 	bfi	x10, x19, #12, #36
   1400021dc:	b37d2128 	bfi	x8, x9, #3, #9
   1400021e0:	f900010a 	str	x10, [x8]
   1400021e4:	d5033fdf 	isb
   1400021e8:	a9434ff4 	ldp	x20, x19, [sp, #48]
   1400021ec:	a94257f6 	ldp	x22, x21, [sp, #32]
   1400021f0:	a9415ff8 	ldp	x24, x23, [sp, #16]
   1400021f4:	f84407fe 	ldr	x30, [sp], #64
   1400021f8:	d65f03c0 	ret
   1400021fc:	b0000040 	adrp	x0, 0x14000b000
   140002200:	911a8000 	add	x0, x0, #0x6a0
   140002204:	b0000042 	adrp	x2, 0x14000b000
   140002208:	91298042 	add	x2, x2, #0xa60
   14000220c:	52800561 	mov	w1, #0x2b                  	// #43
   140002210:	9400205d 	bl	0x14000a384
   140002214:	d4200020 	brk	#0x1
   140002218:	d101c3ff 	sub	sp, sp, #0x70
   14000221c:	a90557fe 	stp	x30, x21, [sp, #80]
   140002220:	b00000b5 	adrp	x21, 0x140017000
   140002224:	a9064ff4 	stp	x20, x19, [sp, #96]
   140002228:	aa0103f3 	mov	x19, x1
   14000222c:	aa0003f4 	mov	x20, x0
   140002230:	f94002b5 	ldr	x21, [x21]
   140002234:	d5382048 	mrs	x8, tcr_el1
   140002238:	f90003e8 	str	x8, [sp]
   14000223c:	f94002a8 	ldr	x8, [x21]
   140002240:	f100091f 	cmp	x8, #0x2
   140002244:	54000249 	b.ls	0x14000228c  // b.plast
   140002248:	910003e8 	mov	x8, sp
   14000224c:	f0000029 	adrp	x9, 0x140009000
   140002250:	91073129 	add	x9, x9, #0x1cc
   140002254:	b000004a 	adrp	x10, 0x14000b000
   140002258:	9122414a 	add	x10, x10, #0x890
   14000225c:	b0000042 	adrp	x2, 0x14000b000
   140002260:	91228042 	add	x2, x2, #0x8a0
   140002264:	910083e0 	add	x0, sp, #0x20
   140002268:	a90127e8 	stp	x8, x9, [sp, #16]
   14000226c:	52800028 	mov	w8, #0x1                   	// #1
   140002270:	910043e9 	add	x9, sp, #0x10
   140002274:	52800061 	mov	w1, #0x3                   	// #3
   140002278:	aa1f03e3 	mov	x3, xzr
   14000227c:	f90013ff 	str	xzr, [sp, #32]
   140002280:	a90323ea 	stp	x10, x8, [sp, #48]
   140002284:	a90423e9 	stp	x9, x8, [sp, #64]
   140002288:	94000a93 	bl	0x140004cd4
   14000228c:	d35b8e68 	ubfx	x8, x19, #27, #9
   140002290:	f9400289 	ldr	x9, [x20]
   140002294:	f8687928 	ldr	x8, [x9, x8, lsl #3]
   140002298:	b4000488 	cbz	x8, 0x140002328
   14000229c:	d3526a69 	ubfx	x9, x19, #18, #9
   1400022a0:	92749d08 	and	x8, x8, #0xffffffffff000
   1400022a4:	b37d2128 	bfi	x8, x9, #3, #9
   1400022a8:	f9400108 	ldr	x8, [x8]
   1400022ac:	b4000508 	cbz	x8, 0x14000234c
   1400022b0:	d3494669 	ubfx	x9, x19, #9, #9
   1400022b4:	92749d08 	and	x8, x8, #0xffffffffff000
   1400022b8:	b37d2128 	bfi	x8, x9, #3, #9
   1400022bc:	f9400108 	ldr	x8, [x8]
   1400022c0:	b4000588 	cbz	x8, 0x140002370
   1400022c4:	92402269 	and	x9, x19, #0x1ff
   1400022c8:	92749d08 	and	x8, x8, #0xffffffffff000
   1400022cc:	b37d2128 	bfi	x8, x9, #3, #9
   1400022d0:	f90007e8 	str	x8, [sp, #8]
   1400022d4:	f94002a8 	ldr	x8, [x21]
   1400022d8:	f100091f 	cmp	x8, #0x2
   1400022dc:	540006a9 	b.ls	0x1400023b0  // b.plast
   1400022e0:	910023e8 	add	x8, sp, #0x8
   1400022e4:	f0ffffe9 	adrp	x9, 0x140001000
   1400022e8:	91328129 	add	x9, x9, #0xca0
   1400022ec:	b000004a 	adrp	x10, 0x14000b000
   1400022f0:	9123614a 	add	x10, x10, #0x8d8
   1400022f4:	b0000042 	adrp	x2, 0x14000b000
   1400022f8:	91248042 	add	x2, x2, #0x920
   1400022fc:	910083e0 	add	x0, sp, #0x20
   140002300:	a90127e8 	stp	x8, x9, [sp, #16]
   140002304:	52800028 	mov	w8, #0x1                   	// #1
   140002308:	b0000049 	adrp	x9, 0x14000b000
   14000230c:	9123a129 	add	x9, x9, #0x8e8
   140002310:	52800061 	mov	w1, #0x3                   	// #3
   140002314:	a90323ea 	stp	x10, x8, [sp, #48]
   140002318:	910043ea 	add	x10, sp, #0x10
   14000231c:	a90223e9 	stp	x9, x8, [sp, #32]
   140002320:	a90423ea 	stp	x10, x8, [sp, #64]
   140002324:	14000021 	b	0x1400023a8
   140002328:	f94002a8 	ldr	x8, [x21]
   14000232c:	b4000428 	cbz	x8, 0x1400023b0
   140002330:	b0000048 	adrp	x8, 0x14000b000
   140002334:	91286108 	add	x8, x8, #0xa18
   140002338:	52800029 	mov	w9, #0x1                   	// #1
   14000233c:	f90013ff 	str	xzr, [sp, #32]
   140002340:	b0000042 	adrp	x2, 0x14000b000
   140002344:	9128a042 	add	x2, x2, #0xa28
   140002348:	14000012 	b	0x140002390
   14000234c:	f94002a8 	ldr	x8, [x21]
   140002350:	b4000308 	cbz	x8, 0x1400023b0
   140002354:	b0000048 	adrp	x8, 0x14000b000
   140002358:	91270108 	add	x8, x8, #0x9c0
   14000235c:	52800029 	mov	w9, #0x1                   	// #1
   140002360:	b0000042 	adrp	x2, 0x14000b000
   140002364:	91274042 	add	x2, x2, #0x9d0
   140002368:	f90013ff 	str	xzr, [sp, #32]
   14000236c:	14000009 	b	0x140002390
   140002370:	f94002a8 	ldr	x8, [x21]
   140002374:	b40001e8 	cbz	x8, 0x1400023b0
   140002378:	b0000048 	adrp	x8, 0x14000b000
   14000237c:	9125a108 	add	x8, x8, #0x968
   140002380:	52800029 	mov	w9, #0x1                   	// #1
   140002384:	f90013ff 	str	xzr, [sp, #32]
   140002388:	b0000042 	adrp	x2, 0x14000b000
   14000238c:	9125e042 	add	x2, x2, #0x978
   140002390:	a90327e8 	stp	x8, x9, [sp, #48]
   140002394:	b0000048 	adrp	x8, 0x14000b000
   140002398:	91162108 	add	x8, x8, #0x588
   14000239c:	a9047fe8 	stp	x8, xzr, [sp, #64]
   1400023a0:	910083e0 	add	x0, sp, #0x20
   1400023a4:	52800021 	mov	w1, #0x1                   	// #1
   1400023a8:	aa1f03e3 	mov	x3, xzr
   1400023ac:	94000a4a 	bl	0x140004cd4
   1400023b0:	a9464ff4 	ldp	x20, x19, [sp, #96]
   1400023b4:	a94557fe 	ldp	x30, x21, [sp, #80]
   1400023b8:	9101c3ff 	add	sp, sp, #0x70
   1400023bc:	d65f03c0 	ret
   1400023c0:	d100c3ff 	sub	sp, sp, #0x30
   1400023c4:	91004009 	add	x9, x0, #0x10
   1400023c8:	aa0103e8 	mov	x8, x1
   1400023cc:	a90203fe 	stp	x30, x0, [sp, #32]
   1400023d0:	9100a3ea 	add	x10, sp, #0x28
   1400023d4:	5280008b 	mov	w11, #0x4                   	// #4
   1400023d8:	b0000041 	adrp	x1, 0x14000b000
   1400023dc:	912aa021 	add	x1, x1, #0xaa8
   1400023e0:	f9000fe9 	str	x9, [sp, #24]
   1400023e4:	b0000049 	adrp	x9, 0x14000b000
   1400023e8:	912b8129 	add	x9, x9, #0xae0
   1400023ec:	b0000043 	adrp	x3, 0x14000b000
   1400023f0:	912ab463 	add	x3, x3, #0xaad
   1400023f4:	b0000046 	adrp	x6, 0x14000b000
   1400023f8:	912ae0c6 	add	x6, x6, #0xab8
   1400023fc:	b0000047 	adrp	x7, 0x14000b000
   140002400:	912b60e7 	add	x7, x7, #0xad8
   140002404:	910063e5 	add	x5, sp, #0x18
   140002408:	aa0803e0 	mov	x0, x8
   14000240c:	528000a2 	mov	w2, #0x5                   	// #5
   140002410:	528000c4 	mov	w4, #0x6                   	// #6
   140002414:	a900a7ea 	stp	x10, x9, [sp, #8]
   140002418:	f90003eb 	str	x11, [sp]
   14000241c:	940014f1 	bl	0x1400077e0
   140002420:	f94013fe 	ldr	x30, [sp, #32]
   140002424:	9100c3ff 	add	sp, sp, #0x30
   140002428:	d65f03c0 	ret
   14000242c:	d100c3ff 	sub	sp, sp, #0x30
   140002430:	aa0103e8 	mov	x8, x1
   140002434:	a901fbe0 	stp	x0, x30, [sp, #24]
   140002438:	f90017e0 	str	x0, [sp, #40]
   14000243c:	b0000049 	adrp	x9, 0x14000b000
   140002440:	912c0129 	add	x9, x9, #0xb00
   140002444:	9100a3ea 	add	x10, sp, #0x28
   140002448:	5280008b 	mov	w11, #0x4                   	// #4
   14000244c:	b0000041 	adrp	x1, 0x14000b000
   140002450:	912aa021 	add	x1, x1, #0xaa8
   140002454:	b0000043 	adrp	x3, 0x14000b000
   140002458:	912ab463 	add	x3, x3, #0xaad
   14000245c:	b0000046 	adrp	x6, 0x14000b000
   140002460:	912ae0c6 	add	x6, x6, #0xab8
   140002464:	b0000047 	adrp	x7, 0x14000b000
   140002468:	912b60e7 	add	x7, x7, #0xad8
   14000246c:	910063e5 	add	x5, sp, #0x18
   140002470:	aa0803e0 	mov	x0, x8
   140002474:	528000a2 	mov	w2, #0x5                   	// #5
   140002478:	528000c4 	mov	w4, #0x6                   	// #6
   14000247c:	a900a7ea 	stp	x10, x9, [sp, #8]
   140002480:	f90003eb 	str	x11, [sp]
   140002484:	940014d7 	bl	0x1400077e0
   140002488:	f94013fe 	ldr	x30, [sp, #32]
   14000248c:	9100c3ff 	add	sp, sp, #0x30
   140002490:	d65f03c0 	ret
   140002494:	f81e0ffe 	str	x30, [sp, #-32]!
   140002498:	a9014ff4 	stp	x20, x19, [sp, #16]
   14000249c:	f9400014 	ldr	x20, [x0]
   1400024a0:	aa0103e0 	mov	x0, x1
   1400024a4:	aa0103f3 	mov	x19, x1
   1400024a8:	940014bb 	bl	0x140007794
   1400024ac:	360000c0 	tbz	w0, #0, 0x1400024c4
   1400024b0:	aa1403e0 	mov	x0, x20
   1400024b4:	aa1303e1 	mov	x1, x19
   1400024b8:	a9414ff4 	ldp	x20, x19, [sp, #16]
   1400024bc:	f84207fe 	ldr	x30, [sp], #32
   1400024c0:	14001b67 	b	0x14000925c
   1400024c4:	aa1303e0 	mov	x0, x19
   1400024c8:	940014b6 	bl	0x1400077a0
   1400024cc:	360000c0 	tbz	w0, #0, 0x1400024e4
   1400024d0:	aa1403e0 	mov	x0, x20
   1400024d4:	aa1303e1 	mov	x1, x19
   1400024d8:	a9414ff4 	ldp	x20, x19, [sp, #16]
   1400024dc:	f84207fe 	ldr	x30, [sp], #32
   1400024e0:	14001b87 	b	0x1400092fc
   1400024e4:	aa1403e0 	mov	x0, x20
   1400024e8:	aa1303e1 	mov	x1, x19
   1400024ec:	a9414ff4 	ldp	x20, x19, [sp, #16]
   1400024f0:	f84207fe 	ldr	x30, [sp], #32
   1400024f4:	14001c90 	b	0x140009734
   1400024f8:	aa0103e0 	mov	x0, x1
   1400024fc:	b0000041 	adrp	x1, 0x14000b000
   140002500:	912c8021 	add	x1, x1, #0xb20
   140002504:	52800042 	mov	w2, #0x2                   	// #2
   140002508:	1400136e 	b	0x1400072c0
   14000250c:	f9400000 	ldr	x0, [x0]
   140002510:	1400119e 	b	0x140006b88
   140002514:	f9400000 	ldr	x0, [x0]
   140002518:	14000f51 	b	0x14000625c
   14000251c:	f9400008 	ldr	x8, [x0]
   140002520:	f9400100 	ldr	x0, [x8]
   140002524:	14000ef8 	b	0x140006104
   140002528:	f9400000 	ldr	x0, [x0]
   14000252c:	14000c66 	b	0x1400056c4
   140002530:	f81f0ffe 	str	x30, [sp, #-16]!
   140002534:	f9400008 	ldr	x8, [x0]
   140002538:	aa0103e0 	mov	x0, x1
   14000253c:	f9400109 	ldr	x9, [x8]
   140002540:	b4000189 	cbz	x9, 0x140002570
   140002544:	91002108 	add	x8, x8, #0x8
   140002548:	b0000041 	adrp	x1, 0x14000b000
   14000254c:	912de021 	add	x1, x1, #0xb78
   140002550:	b0000044 	adrp	x4, 0x14000b000
   140002554:	912e0084 	add	x4, x4, #0xb80
   140002558:	910023e3 	add	x3, sp, #0x8
   14000255c:	52800082 	mov	w2, #0x4                   	// #4
   140002560:	f90007e8 	str	x8, [sp, #8]
   140002564:	9400156e 	bl	0x140007b1c
   140002568:	f84107fe 	ldr	x30, [sp], #16
   14000256c:	d65f03c0 	ret
   140002570:	b0000041 	adrp	x1, 0x14000b000
   140002574:	912e8021 	add	x1, x1, #0xba0
   140002578:	52800082 	mov	w2, #0x4                   	// #4
   14000257c:	f84107fe 	ldr	x30, [sp], #16
   140002580:	14001474 	b	0x140007750
   140002584:	f81f0ffe 	str	x30, [sp, #-16]!
   140002588:	f9400000 	ldr	x0, [x0]
   14000258c:	7102003f 	cmp	w1, #0x80
   140002590:	b9000fff 	str	wzr, [sp, #12]
   140002594:	540000e2 	b.cs	0x1400025b0  // b.hs, b.nlast
   140002598:	52800022 	mov	w2, #0x1                   	// #1
   14000259c:	390033e1 	strb	w1, [sp, #12]
   1400025a0:	910033e1 	add	x1, sp, #0xc
   1400025a4:	94000d49 	bl	0x140005ac8
   1400025a8:	f84107fe 	ldr	x30, [sp], #16
   1400025ac:	d65f03c0 	ret
   1400025b0:	7120003f 	cmp	w1, #0x800
   1400025b4:	54000182 	b.cs	0x1400025e4  // b.hs, b.nlast
   1400025b8:	53067c28 	lsr	w8, w1, #6
   1400025bc:	52801009 	mov	w9, #0x80                  	// #128
   1400025c0:	321a0508 	orr	w8, w8, #0xc0
   1400025c4:	33001429 	bfxil	w9, w1, #0, #6
   1400025c8:	52800042 	mov	w2, #0x2                   	// #2
   1400025cc:	390033e8 	strb	w8, [sp, #12]
   1400025d0:	390037e9 	strb	w9, [sp, #13]
   1400025d4:	910033e1 	add	x1, sp, #0xc
   1400025d8:	94000d3c 	bl	0x140005ac8
   1400025dc:	f84107fe 	ldr	x30, [sp], #16
   1400025e0:	d65f03c0 	ret
   1400025e4:	7140403f 	cmp	w1, #0x10, lsl #12
   1400025e8:	540001e2 	b.cs	0x140002624  // b.hs, b.nlast
   1400025ec:	530c7c28 	lsr	w8, w1, #12
   1400025f0:	52801009 	mov	w9, #0x80                  	// #128
   1400025f4:	5280100a 	mov	w10, #0x80                  	// #128
   1400025f8:	321b0908 	orr	w8, w8, #0xe0
   1400025fc:	33062c29 	bfxil	w9, w1, #6, #6
   140002600:	3300142a 	bfxil	w10, w1, #0, #6
   140002604:	52800062 	mov	w2, #0x3                   	// #3
   140002608:	390033e8 	strb	w8, [sp, #12]
   14000260c:	390037e9 	strb	w9, [sp, #13]
   140002610:	39003bea 	strb	w10, [sp, #14]
   140002614:	910033e1 	add	x1, sp, #0xc
   140002618:	94000d2c 	bl	0x140005ac8
   14000261c:	f84107fe 	ldr	x30, [sp], #16
   140002620:	d65f03c0 	ret
   140002624:	52801e08 	mov	w8, #0xf0                  	// #240
   140002628:	52801009 	mov	w9, #0x80                  	// #128
   14000262c:	5280100a 	mov	w10, #0x80                  	// #128
   140002630:	5280100b 	mov	w11, #0x80                  	// #128
   140002634:	33125028 	bfxil	w8, w1, #18, #3
   140002638:	330c4429 	bfxil	w9, w1, #12, #6
   14000263c:	33062c2a 	bfxil	w10, w1, #6, #6
   140002640:	3300142b 	bfxil	w11, w1, #0, #6
   140002644:	52800082 	mov	w2, #0x4                   	// #4
   140002648:	390033e8 	strb	w8, [sp, #12]
   14000264c:	390037e9 	strb	w9, [sp, #13]
   140002650:	39003bea 	strb	w10, [sp, #14]
   140002654:	39003feb 	strb	w11, [sp, #15]
   140002658:	910033e1 	add	x1, sp, #0xc
   14000265c:	94000d1b 	bl	0x140005ac8
   140002660:	f84107fe 	ldr	x30, [sp], #16
   140002664:	d65f03c0 	ret
   140002668:	d10103ff 	sub	sp, sp, #0x40
   14000266c:	ad400420 	ldp	q0, q1, [x1]
   140002670:	910003e2 	mov	x2, sp
   140002674:	f9400008 	ldr	x8, [x0]
   140002678:	9100e3e0 	add	x0, sp, #0x38
   14000267c:	3dc00822 	ldr	q2, [x1, #32]
   140002680:	b0000041 	adrp	x1, 0x14000b000
   140002684:	912d2021 	add	x1, x1, #0xb48
   140002688:	ad0007e0 	stp	q0, q1, [sp]
   14000268c:	a90323fe 	stp	x30, x8, [sp, #48]
   140002690:	3d800be2 	str	q2, [sp, #32]
   140002694:	94001149 	bl	0x140006bb8
   140002698:	f9401bfe 	ldr	x30, [sp, #48]
   14000269c:	910103ff 	add	sp, sp, #0x40
   1400026a0:	d65f03c0 	ret
   1400026a4:	f9400000 	ldr	x0, [x0]
   1400026a8:	14000d08 	b	0x140005ac8
   1400026ac:	d10183ff 	sub	sp, sp, #0x60
   1400026b0:	b00000a9 	adrp	x9, 0x140017000
   1400026b4:	a9054ffe 	stp	x30, x19, [sp, #80]
   1400026b8:	aa0003e8 	mov	x8, x0
   1400026bc:	90000013 	adrp	x19, 0x140002000
   1400026c0:	91145273 	add	x19, x19, #0x514
   1400026c4:	f9400d20 	ldr	x0, [x9, #24]
   1400026c8:	f90003e8 	str	x8, [sp]
   1400026cc:	b4000220 	cbz	x0, 0x140002710
   1400026d0:	94000cb2 	bl	0x140005998
   1400026d4:	910003e8 	mov	x8, sp
   1400026d8:	b0000049 	adrp	x9, 0x14000b000
   1400026dc:	9133c129 	add	x9, x9, #0xcf0
   1400026e0:	a901ffe0 	stp	x0, xzr, [sp, #24]
   1400026e4:	910023ea 	add	x10, sp, #0x8
   1400026e8:	b0000041 	adrp	x1, 0x14000b000
   1400026ec:	912d2021 	add	x1, x1, #0xb48
   1400026f0:	a900cfe8 	stp	x8, x19, [sp, #8]
   1400026f4:	52800048 	mov	w8, #0x2                   	// #2
   1400026f8:	910063e0 	add	x0, sp, #0x18
   1400026fc:	910083e2 	add	x2, sp, #0x20
   140002700:	a90323e9 	stp	x9, x8, [sp, #48]
   140002704:	52800029 	mov	w9, #0x1                   	// #1
   140002708:	a90427ea 	stp	x10, x9, [sp, #64]
   14000270c:	9400112b 	bl	0x140006bb8
   140002710:	b00000a8 	adrp	x8, 0x140017000
   140002714:	9101e108 	add	x8, x8, #0x78
   140002718:	08dffd00 	ldarb	w0, [x8]
   14000271c:	97fffa39 	bl	0x140001000
   140002720:	12001c08 	and	w8, w0, #0xff
   140002724:	7100091f 	cmp	w8, #0x2
   140002728:	54000081 	b.ne	0x140002738  // b.any
   14000272c:	b00000a8 	adrp	x8, 0x140017000
   140002730:	91008108 	add	x8, x8, #0x20
   140002734:	089ffd1f 	stlrb	wzr, [x8]
   140002738:	b00000a8 	adrp	x8, 0x140017000
   14000273c:	f9400108 	ldr	x8, [x8]
   140002740:	f9400108 	ldr	x8, [x8]
   140002744:	b4000208 	cbz	x8, 0x140002784
   140002748:	910003e8 	mov	x8, sp
   14000274c:	b0000049 	adrp	x9, 0x14000b000
   140002750:	91344129 	add	x9, x9, #0xd10
   140002754:	910023ea 	add	x10, sp, #0x8
   140002758:	b0000042 	adrp	x2, 0x14000b000
   14000275c:	9134c042 	add	x2, x2, #0xd30
   140002760:	a900cfe8 	stp	x8, x19, [sp, #8]
   140002764:	52800028 	mov	w8, #0x1                   	// #1
   140002768:	910083e0 	add	x0, sp, #0x20
   14000276c:	52800021 	mov	w1, #0x1                   	// #1
   140002770:	aa1f03e3 	mov	x3, xzr
   140002774:	f90013ff 	str	xzr, [sp, #32]
   140002778:	a90323e9 	stp	x9, x8, [sp, #48]
   14000277c:	a90423ea 	stp	x10, x8, [sp, #64]
   140002780:	94000955 	bl	0x140004cd4
   140002784:	d503205f 	wfe
   140002788:	17ffffff 	b	0x140002784
   14000278c:	14001ab4 	b	0x14000925c
   140002790:	a9ba77fe 	stp	x30, x29, [sp, #-96]!
   140002794:	a9016ffc 	stp	x28, x27, [sp, #16]
   140002798:	a90267fa 	stp	x26, x25, [sp, #32]
   14000279c:	a9035ff8 	stp	x24, x23, [sp, #48]
   1400027a0:	a90457f6 	stp	x22, x21, [sp, #64]
   1400027a4:	a9054ff4 	stp	x20, x19, [sp, #80]
   1400027a8:	d11d83ff 	sub	sp, sp, #0x760
   1400027ac:	aa0003f7 	mov	x23, x0
   1400027b0:	9100a3e0 	add	x0, sp, #0x28
   1400027b4:	f90017e1 	str	x1, [sp, #40]
   1400027b8:	9100a3f3 	add	x19, sp, #0x28
   1400027bc:	94000c7a 	bl	0x1400059a4
   1400027c0:	aa1703e1 	mov	x1, x23
   1400027c4:	940009af 	bl	0x140004e80
   1400027c8:	b00000bd 	adrp	x29, 0x140017000
   1400027cc:	9100a3e0 	add	x0, sp, #0x28
   1400027d0:	f9000fb3 	str	x19, [x29, #24]
   1400027d4:	94000c71 	bl	0x140005998
   1400027d8:	94000cb3 	bl	0x140005aa4
   1400027dc:	b5000c20 	cbnz	x0, 0x140002960
   1400027e0:	9100a3e0 	add	x0, sp, #0x28
   1400027e4:	94000c70 	bl	0x1400059a4
   1400027e8:	d0000081 	adrp	x1, 0x140014000
   1400027ec:	91146021 	add	x1, x1, #0x518
   1400027f0:	9112c3e8 	add	x8, sp, #0x4b0
   1400027f4:	94000a29 	bl	0x140005098
   1400027f8:	f9425be8 	ldr	x8, [sp, #1200]
   1400027fc:	52800053 	mov	w19, #0x2                   	// #2
   140002800:	b5000ca8 	cbnz	x8, 0x140002994
   140002804:	f9425ffa 	ldr	x26, [sp, #1208]
   140002808:	b4000c7a 	cbz	x26, 0x140002994
   14000280c:	9100a3e0 	add	x0, sp, #0x28
   140002810:	94000c65 	bl	0x1400059a4
   140002814:	aa0003fc 	mov	x28, x0
   140002818:	9400098f 	bl	0x140004e54
   14000281c:	aa0003fb 	mov	x27, x0
   140002820:	f9408f88 	ldr	x8, [x28, #280]
   140002824:	d0000081 	adrp	x1, 0x140014000
   140002828:	91146021 	add	x1, x1, #0x518
   14000282c:	9112c3e2 	add	x2, sp, #0x4b0
   140002830:	aa1a03e0 	mov	x0, x26
   140002834:	aa1b03e3 	mov	x3, x27
   140002838:	aa1f03e4 	mov	x4, xzr
   14000283c:	52800405 	mov	w5, #0x20                  	// #32
   140002840:	f9025bff 	str	xzr, [sp, #1200]
   140002844:	d63f0100 	blr	x8
   140002848:	b5000a20 	cbnz	x0, 0x14000298c
   14000284c:	f9425bf3 	ldr	x19, [sp, #1200]
   140002850:	b4000a13 	cbz	x19, 0x140002990
   140002854:	910923e8 	add	x8, sp, #0x248
   140002858:	aa1303e0 	mov	x0, x19
   14000285c:	94000956 	bl	0x140004db4
   140002860:	aa1303e0 	mov	x0, x19
   140002864:	9400095b 	bl	0x140004dd0
   140002868:	a90307e0 	stp	x0, x1, [sp, #48]
   14000286c:	9100c3e0 	add	x0, sp, #0x30
   140002870:	94000977 	bl	0x140004e4c
   140002874:	aa0003f4 	mov	x20, x0
   140002878:	910923e0 	add	x0, sp, #0x248
   14000287c:	9400096b 	bl	0x140004e28
   140002880:	f90013e0 	str	x0, [sp, #32]
   140002884:	910923e0 	add	x0, sp, #0x248
   140002888:	94000968 	bl	0x140004e28
   14000288c:	910923e0 	add	x0, sp, #0x248
   140002890:	f9000fe1 	str	x1, [sp, #24]
   140002894:	94000968 	bl	0x140004e34
   140002898:	7100081f 	cmp	w0, #0x2
   14000289c:	54002b02 	b.cs	0x140002dfc  // b.hs, b.nlast
   1400028a0:	2a0003f3 	mov	w19, w0
   1400028a4:	910923e0 	add	x0, sp, #0x248
   1400028a8:	94000965 	bl	0x140004e3c
   1400028ac:	aa0003f6 	mov	x22, x0
   1400028b0:	9100c3e0 	add	x0, sp, #0x30
   1400028b4:	94000964 	bl	0x140004e44
   1400028b8:	aa0003f5 	mov	x21, x0
   1400028bc:	f9409388 	ldr	x8, [x28, #288]
   1400028c0:	d0000081 	adrp	x1, 0x140014000
   1400028c4:	91146021 	add	x1, x1, #0x518
   1400028c8:	aa1a03e0 	mov	x0, x26
   1400028cc:	aa1b03e2 	mov	x2, x27
   1400028d0:	aa1f03e3 	mov	x3, xzr
   1400028d4:	d63f0100 	blr	x8
   1400028d8:	f90127e0 	str	x0, [sp, #584]
   1400028dc:	b5002ae0 	cbnz	x0, 0x140002e38
   1400028e0:	52800088 	mov	w8, #0x4                   	// #4
   1400028e4:	f94013e9 	ldr	x9, [sp, #32]
   1400028e8:	b00000a0 	adrp	x0, 0x140017000
   1400028ec:	91008000 	add	x0, x0, #0x20
   1400028f0:	910923e1 	add	x1, sp, #0x248
   1400028f4:	f9025bf5 	str	x21, [sp, #1200]
   1400028f8:	f90263e9 	str	x9, [sp, #1216]
   1400028fc:	f9400fe9 	ldr	x9, [sp, #24]
   140002900:	f9026fe8 	str	x8, [sp, #1240]
   140002904:	9112c3e8 	add	x8, sp, #0x4b0
   140002908:	f9025ff4 	str	x20, [sp, #1208]
   14000290c:	f90267e9 	str	x9, [sp, #1224]
   140002910:	b904d3f3 	str	w19, [sp, #1232]
   140002914:	f90273f6 	str	x22, [sp, #1248]
   140002918:	f90127f5 	str	x21, [sp, #584]
   14000291c:	f9012bf4 	str	x20, [sp, #592]
   140002920:	f9012fe8 	str	x8, [sp, #600]
   140002924:	9400085d 	bl	0x140004a98
   140002928:	b0000041 	adrp	x1, 0x14000b000
   14000292c:	91318021 	add	x1, x1, #0xc60
   140002930:	940008cc 	bl	0x140004c60
   140002934:	34002960 	cbz	w0, 0x140002e60
   140002938:	b0000040 	adrp	x0, 0x14000b000
   14000293c:	91326000 	add	x0, x0, #0xc98
   140002940:	b0000043 	adrp	x3, 0x14000b000
   140002944:	9132c063 	add	x3, x3, #0xcb0
   140002948:	b0000044 	adrp	x4, 0x14000b000
   14000294c:	91334084 	add	x4, x4, #0xcd0
   140002950:	910923e2 	add	x2, sp, #0x248
   140002954:	52800241 	mov	w1, #0x12                  	// #18
   140002958:	94001f08 	bl	0x14000a578
   14000295c:	d4200020 	brk	#0x1
   140002960:	f9025be1 	str	x1, [sp, #1200]
   140002964:	b0000040 	adrp	x0, 0x14000b000
   140002968:	9135a000 	add	x0, x0, #0xd68
   14000296c:	b0000043 	adrp	x3, 0x14000b000
   140002970:	91360063 	add	x3, x3, #0xd80
   140002974:	b0000044 	adrp	x4, 0x14000b000
   140002978:	91368084 	add	x4, x4, #0xda0
   14000297c:	9112c3e2 	add	x2, sp, #0x4b0
   140002980:	528002c1 	mov	w1, #0x16                  	// #22
   140002984:	94001efd 	bl	0x14000a578
   140002988:	d4200020 	brk	#0x1
   14000298c:	97fff99d 	bl	0x140001000
   140002990:	52800053 	mov	w19, #0x2                   	// #2
   140002994:	f94017e8 	ldr	x8, [sp, #40]
   140002998:	f9000fbf 	str	xzr, [x29, #24]
   14000299c:	f9403509 	ldr	x9, [x8, #104]
   1400029a0:	b50002a9 	cbnz	x9, 0x1400029f4
   1400029a4:	aa1f03fb 	mov	x27, xzr
   1400029a8:	9112c3e0 	add	x0, sp, #0x4b0
   1400029ac:	f9025be8 	str	x8, [sp, #1200]
   1400029b0:	94000bfd 	bl	0x1400059a4
   1400029b4:	aa1f03e1 	mov	x1, xzr
   1400029b8:	12800003 	mov	w3, #0xffffffff            	// #-1
   1400029bc:	52800024 	mov	w4, #0x1                   	// #1
   1400029c0:	52800035 	mov	w21, #0x1                   	// #1
   1400029c4:	94000932 	bl	0x140004e8c
   1400029c8:	f100001f 	cmp	x0, #0x0
   1400029cc:	d34cbc28 	ubfx	x8, x1, #12, #36
   1400029d0:	9a880108 	csel	x8, x8, x8, eq	// eq = none
   1400029d4:	b40006e0 	cbz	x0, 0x140002ab0
   1400029d8:	b0000040 	adrp	x0, 0x14000b000
   1400029dc:	911a8000 	add	x0, x0, #0x6a0
   1400029e0:	b0000042 	adrp	x2, 0x14000b000
   1400029e4:	911f6042 	add	x2, x2, #0x7d8
   1400029e8:	52800561 	mov	w1, #0x2b                  	// #43
   1400029ec:	94001e66 	bl	0x14000a384
   1400029f0:	d4200020 	brk	#0x1
   1400029f4:	f940390a 	ldr	x10, [x8, #112]
   1400029f8:	8b090529 	add	x9, x9, x9, lsl #1
   1400029fc:	529d0e2b 	mov	w11, #0xe871                	// #59505
   140002a00:	d37df129 	lsl	x9, x9, #3
   140002a04:	72b10d0b 	movk	w11, #0x8868, lsl #16
   140002a08:	529c9e2c 	mov	w12, #0xe4f1                	// #58609
   140002a0c:	52823a6d 	mov	w13, #0x11d3                	// #4563
   140002a10:	aa0a03ee 	mov	x14, x10
   140002a14:	14000004 	b	0x140002a24
   140002a18:	f1006129 	subs	x9, x9, #0x18
   140002a1c:	aa0e03ea 	mov	x10, x14
   140002a20:	54fffc20 	b.eq	0x1400029a4  // b.none
   140002a24:	b84185cf 	ldr	w15, [x14], #24
   140002a28:	6b0b01ff 	cmp	w15, w11
   140002a2c:	54ffff61 	b.ne	0x140002a18  // b.any
   140002a30:	7940094f 	ldrh	w15, [x10, #4]
   140002a34:	6b0c01ff 	cmp	w15, w12
   140002a38:	54ffff01 	b.ne	0x140002a18  // b.any
   140002a3c:	79400d4f 	ldrh	w15, [x10, #6]
   140002a40:	6b0d01ff 	cmp	w15, w13
   140002a44:	54fffea1 	b.ne	0x140002a18  // b.any
   140002a48:	3940214f 	ldrb	w15, [x10, #8]
   140002a4c:	7102f1ff 	cmp	w15, #0xbc
   140002a50:	54fffe41 	b.ne	0x140002a18  // b.any
   140002a54:	3940254f 	ldrb	w15, [x10, #9]
   140002a58:	710089ff 	cmp	w15, #0x22
   140002a5c:	54fffde1 	b.ne	0x140002a18  // b.any
   140002a60:	3940294f 	ldrb	w15, [x10, #10]
   140002a64:	35fffdaf 	cbnz	w15, 0x140002a18
   140002a68:	39402d4f 	ldrb	w15, [x10, #11]
   140002a6c:	710201ff 	cmp	w15, #0x80
   140002a70:	54fffd41 	b.ne	0x140002a18  // b.any
   140002a74:	3940314f 	ldrb	w15, [x10, #12]
   140002a78:	71031dff 	cmp	w15, #0xc7
   140002a7c:	54fffce1 	b.ne	0x140002a18  // b.any
   140002a80:	3940354f 	ldrb	w15, [x10, #13]
   140002a84:	7100f1ff 	cmp	w15, #0x3c
   140002a88:	54fffc81 	b.ne	0x140002a18  // b.any
   140002a8c:	3940394f 	ldrb	w15, [x10, #14]
   140002a90:	710221ff 	cmp	w15, #0x88
   140002a94:	54fffc21 	b.ne	0x140002a18  // b.any
   140002a98:	39403d4f 	ldrb	w15, [x10, #15]
   140002a9c:	710205ff 	cmp	w15, #0x81
   140002aa0:	54fffbc1 	b.ne	0x140002a18  // b.any
   140002aa4:	f940095a 	ldr	x26, [x10, #16]
   140002aa8:	5280003b 	mov	w27, #0x1                   	// #1
   140002aac:	17ffffbf 	b	0x1400029a8
   140002ab0:	d3748d1c 	ubfiz	x28, x8, #12, #36
   140002ab4:	2a1f03e1 	mov	w1, wzr
   140002ab8:	aa1c03e0 	mov	x0, x28
   140002abc:	52820002 	mov	w2, #0x1000                	// #4096
   140002ac0:	9100c3f9 	add	x25, sp, #0x30
   140002ac4:	94001bee 	bl	0x140009a7c
   140002ac8:	9100c3e8 	add	x8, sp, #0x30
   140002acc:	9100c3e0 	add	x0, sp, #0x30
   140002ad0:	6f00e400 	movi	v0.2d, #0x0
   140002ad4:	91040509 	add	x9, x8, #0x101
   140002ad8:	9104450a 	add	x10, x8, #0x111
   140002adc:	9104850b 	add	x11, x8, #0x121
   140002ae0:	3900c3f5 	strb	w21, [sp, #48]
   140002ae4:	f9011bf7 	str	x23, [sp, #560]
   140002ae8:	3d800120 	str	q0, [x9]
   140002aec:	9104c509 	add	x9, x8, #0x131
   140002af0:	3d800140 	str	q0, [x10]
   140002af4:	9105050a 	add	x10, x8, #0x141
   140002af8:	3d800160 	str	q0, [x11]
   140002afc:	9105450b 	add	x11, x8, #0x151
   140002b00:	3d800120 	str	q0, [x9]
   140002b04:	91058509 	add	x9, x8, #0x161
   140002b08:	3d800140 	str	q0, [x10]
   140002b0c:	9105c50a 	add	x10, x8, #0x171
   140002b10:	3d800160 	str	q0, [x11]
   140002b14:	9106050b 	add	x11, x8, #0x181
   140002b18:	3d800120 	str	q0, [x9]
   140002b1c:	91064509 	add	x9, x8, #0x191
   140002b20:	3d800140 	str	q0, [x10]
   140002b24:	9106850a 	add	x10, x8, #0x1a1
   140002b28:	3d800160 	str	q0, [x11]
   140002b2c:	9106c50b 	add	x11, x8, #0x1b1
   140002b30:	3d800120 	str	q0, [x9]
   140002b34:	91070509 	add	x9, x8, #0x1c1
   140002b38:	3d800140 	str	q0, [x10]
   140002b3c:	9107450a 	add	x10, x8, #0x1d1
   140002b40:	91078508 	add	x8, x8, #0x1e1
   140002b44:	3d800160 	str	q0, [x11]
   140002b48:	3d800120 	str	q0, [x9]
   140002b4c:	3d800140 	str	q0, [x10]
   140002b50:	3d800100 	str	q0, [x8]
   140002b54:	f9425be8 	ldr	x8, [sp, #1200]
   140002b58:	3c8313e0 	stur	q0, [sp, #49]
   140002b5c:	3c8413e0 	stur	q0, [sp, #65]
   140002b60:	f9011fe8 	str	x8, [sp, #568]
   140002b64:	9112c3e8 	add	x8, sp, #0x4b0
   140002b68:	3c8513e0 	stur	q0, [sp, #81]
   140002b6c:	3c8613e0 	stur	q0, [sp, #97]
   140002b70:	3c8713e0 	stur	q0, [sp, #113]
   140002b74:	3c8813e0 	stur	q0, [sp, #129]
   140002b78:	3c8913e0 	stur	q0, [sp, #145]
   140002b7c:	3c8a13e0 	stur	q0, [sp, #161]
   140002b80:	3c881320 	stur	q0, [x25, #129]
   140002b84:	3c891320 	stur	q0, [x25, #145]
   140002b88:	3c8a1320 	stur	q0, [x25, #161]
   140002b8c:	3c8b1320 	stur	q0, [x25, #177]
   140002b90:	3c8c1320 	stur	q0, [x25, #193]
   140002b94:	3c8d1320 	stur	q0, [x25, #209]
   140002b98:	3c8e1320 	stur	q0, [x25, #225]
   140002b9c:	3c8f1320 	stur	q0, [x25, #241]
   140002ba0:	3d807f20 	str	q0, [x25, #496]
   140002ba4:	f90123fc 	str	x28, [sp, #576]
   140002ba8:	97fffb28 	bl	0x140001848
   140002bac:	b00000b8 	adrp	x24, 0x140017000
   140002bb0:	f9400318 	ldr	x24, [x24]
   140002bb4:	f9425bf5 	ldr	x21, [sp, #1200]
   140002bb8:	f9425ffc 	ldr	x28, [sp, #1208]
   140002bbc:	f94263f7 	ldr	x23, [sp, #1216]
   140002bc0:	f9400308 	ldr	x8, [x24]
   140002bc4:	f100091f 	cmp	x8, #0x2
   140002bc8:	54000229 	b.ls	0x140002c0c  // b.plast
   140002bcc:	b0000048 	adrp	x8, 0x14000b000
   140002bd0:	91398108 	add	x8, x8, #0xe60
   140002bd4:	52800029 	mov	w9, #0x1                   	// #1
   140002bd8:	b0000042 	adrp	x2, 0x14000b000
   140002bdc:	9139c042 	add	x2, x2, #0xe70
   140002be0:	9112c3e0 	add	x0, sp, #0x4b0
   140002be4:	f90263e8 	str	x8, [sp, #1216]
   140002be8:	b0000048 	adrp	x8, 0x14000b000
   140002bec:	912ea108 	add	x8, x8, #0xba8
   140002bf0:	52800061 	mov	w1, #0x3                   	// #3
   140002bf4:	aa1f03e3 	mov	x3, xzr
   140002bf8:	f9025bff 	str	xzr, [sp, #1200]
   140002bfc:	f90267e9 	str	x9, [sp, #1224]
   140002c00:	f9026be8 	str	x8, [sp, #1232]
   140002c04:	f9026fff 	str	xzr, [sp, #1240]
   140002c08:	94000833 	bl	0x140004cd4
   140002c0c:	f9400308 	ldr	x8, [x24]
   140002c10:	f100091f 	cmp	x8, #0x2
   140002c14:	54000229 	b.ls	0x140002c58  // b.plast
   140002c18:	b0000048 	adrp	x8, 0x14000b000
   140002c1c:	913ae108 	add	x8, x8, #0xeb8
   140002c20:	52800029 	mov	w9, #0x1                   	// #1
   140002c24:	b0000042 	adrp	x2, 0x14000b000
   140002c28:	913b2042 	add	x2, x2, #0xec8
   140002c2c:	9112c3e0 	add	x0, sp, #0x4b0
   140002c30:	f90263e8 	str	x8, [sp, #1216]
   140002c34:	b0000048 	adrp	x8, 0x14000b000
   140002c38:	912ea108 	add	x8, x8, #0xba8
   140002c3c:	52800061 	mov	w1, #0x3                   	// #3
   140002c40:	aa1f03e3 	mov	x3, xzr
   140002c44:	f9025bff 	str	xzr, [sp, #1200]
   140002c48:	f90267e9 	str	x9, [sp, #1224]
   140002c4c:	f9026be8 	str	x8, [sp, #1232]
   140002c50:	f9026fff 	str	xzr, [sp, #1240]
   140002c54:	94000820 	bl	0x140004cd4
   140002c58:	9112c3e0 	add	x0, sp, #0x4b0
   140002c5c:	9100c3e1 	add	x1, sp, #0x30
   140002c60:	52804302 	mov	w2, #0x218                 	// #536
   140002c64:	94001b85 	bl	0x140009a78
   140002c68:	910923e8 	add	x8, sp, #0x248
   140002c6c:	9112c3e0 	add	x0, sp, #0x4b0
   140002c70:	97fffaaa 	bl	0x140001718
   140002c74:	910923e0 	add	x0, sp, #0x248
   140002c78:	97fffbc9 	bl	0x140001b9c
   140002c7c:	f94257e8 	ldr	x8, [sp, #1192]
   140002c80:	aa0003fd 	mov	x29, x0
   140002c84:	f9400309 	ldr	x9, [x24]
   140002c88:	d34cbd16 	ubfx	x22, x8, #12, #36
   140002c8c:	f100093f 	cmp	x9, #0x2
   140002c90:	54000349 	b.ls	0x140002cf8  // b.plast
   140002c94:	d374cec8 	lsl	x8, x22, #12
   140002c98:	911d43e9 	add	x9, sp, #0x750
   140002c9c:	9000000a 	adrp	x10, 0x140002000
   140002ca0:	911e314a 	add	x10, x10, #0x78c
   140002ca4:	b0000042 	adrp	x2, 0x14000b000
   140002ca8:	913ca042 	add	x2, x2, #0xf28
   140002cac:	f903abe8 	str	x8, [sp, #1872]
   140002cb0:	b0000048 	adrp	x8, 0x14000b000
   140002cb4:	913c6108 	add	x8, x8, #0xf18
   140002cb8:	f9038fe9 	str	x9, [sp, #1816]
   140002cbc:	f90393ea 	str	x10, [sp, #1824]
   140002cc0:	52800029 	mov	w9, #0x1                   	// #1
   140002cc4:	b000004a 	adrp	x10, 0x14000b000
   140002cc8:	9137814a 	add	x10, x10, #0xde0
   140002ccc:	f90263e8 	str	x8, [sp, #1216]
   140002cd0:	911c63e8 	add	x8, sp, #0x718
   140002cd4:	9112c3e0 	add	x0, sp, #0x4b0
   140002cd8:	52800061 	mov	w1, #0x3                   	// #3
   140002cdc:	aa1f03e3 	mov	x3, xzr
   140002ce0:	f90267e9 	str	x9, [sp, #1224]
   140002ce4:	f9025bea 	str	x10, [sp, #1200]
   140002ce8:	f9025fe9 	str	x9, [sp, #1208]
   140002cec:	f9026be8 	str	x8, [sp, #1232]
   140002cf0:	f9026fe9 	str	x9, [sp, #1240]
   140002cf4:	940007f8 	bl	0x140004cd4
   140002cf8:	9112c3e0 	add	x0, sp, #0x4b0
   140002cfc:	910923e1 	add	x1, sp, #0x248
   140002d00:	52804d02 	mov	w2, #0x268                 	// #616
   140002d04:	94001b5d 	bl	0x140009a78
   140002d08:	f9400be8 	ldr	x8, [sp, #16]
   140002d0c:	b0000044 	adrp	x4, 0x14000b000
   140002d10:	91000084 	add	x4, x4, #0x0
   140002d14:	f94013e9 	ldr	x9, [sp, #32]
   140002d18:	9112c3e0 	add	x0, sp, #0x4b0
   140002d1c:	911c63e1 	add	x1, sp, #0x718
   140002d20:	f9038fe8 	str	x8, [sp, #1816]
   140002d24:	52800088 	mov	w8, #0x4                   	// #4
   140002d28:	f90397e9 	str	x9, [sp, #1832]
   140002d2c:	f9400fe9 	ldr	x9, [sp, #24]
   140002d30:	aa1b03e2 	mov	x2, x27
   140002d34:	aa1a03e3 	mov	x3, x26
   140002d38:	f903a3e8 	str	x8, [sp, #1856]
   140002d3c:	f94007e8 	ldr	x8, [sp, #8]
   140002d40:	aa1f03e5 	mov	x5, xzr
   140002d44:	aa1c03e6 	mov	x6, x28
   140002d48:	aa1703e7 	mov	x7, x23
   140002d4c:	f90393f4 	str	x20, [sp, #1824]
   140002d50:	f9039be9 	str	x9, [sp, #1840]
   140002d54:	b9073bf3 	str	w19, [sp, #1848]
   140002d58:	911c63f3 	add	x19, sp, #0x718
   140002d5c:	f903a7e8 	str	x8, [sp, #1864]
   140002d60:	97fff8a9 	bl	0x140001004
   140002d64:	f9038ff6 	str	x22, [sp, #1816]
   140002d68:	f90393fd 	str	x29, [sp, #1824]
   140002d6c:	f90397f5 	str	x21, [sp, #1832]
   140002d70:	f9039be0 	str	x0, [sp, #1840]
   140002d74:	f9400308 	ldr	x8, [x24]
   140002d78:	f100091f 	cmp	x8, #0x2
   140002d7c:	540002e9 	b.ls	0x140002dd8  // b.plast
   140002d80:	90000008 	adrp	x8, 0x140002000
   140002d84:	913b7108 	add	x8, x8, #0xedc
   140002d88:	b0000049 	adrp	x9, 0x14000b000
   140002d8c:	913e0129 	add	x9, x9, #0xf80
   140002d90:	b000004a 	adrp	x10, 0x14000b000
   140002d94:	913e414a 	add	x10, x10, #0xf90
   140002d98:	f903afe8 	str	x8, [sp, #1880]
   140002d9c:	52800028 	mov	w8, #0x1                   	// #1
   140002da0:	f90263e9 	str	x9, [sp, #1216]
   140002da4:	911d43e9 	add	x9, sp, #0x750
   140002da8:	b0000042 	adrp	x2, 0x14000b000
   140002dac:	913f2042 	add	x2, x2, #0xfc8
   140002db0:	9112c3e0 	add	x0, sp, #0x4b0
   140002db4:	52800061 	mov	w1, #0x3                   	// #3
   140002db8:	aa1f03e3 	mov	x3, xzr
   140002dbc:	f903abf3 	str	x19, [sp, #1872]
   140002dc0:	f90267e8 	str	x8, [sp, #1224]
   140002dc4:	f9025bea 	str	x10, [sp, #1200]
   140002dc8:	f9025fe8 	str	x8, [sp, #1208]
   140002dcc:	f9026be9 	str	x9, [sp, #1232]
   140002dd0:	f9026fe8 	str	x8, [sp, #1240]
   140002dd4:	940007c0 	bl	0x140004cd4
   140002dd8:	911867e8 	add	x8, sp, #0x619
   140002ddc:	9112c3e0 	add	x0, sp, #0x4b0
   140002de0:	3ccff100 	ldur	q0, [x8, #255]
   140002de4:	9118a7e8 	add	x8, sp, #0x629
   140002de8:	3ccff101 	ldur	q1, [x8, #255]
   140002dec:	3d812320 	str	q0, [x25, #1152]
   140002df0:	3d812721 	str	q1, [x25, #1168]
   140002df4:	94000780 	bl	0x140004bf4
   140002df8:	d4200020 	brk	#0x1
   140002dfc:	b0000048 	adrp	x8, 0x14000b000
   140002e00:	912f8108 	add	x8, x8, #0xbe0
   140002e04:	52800029 	mov	w9, #0x1                   	// #1
   140002e08:	b0000041 	adrp	x1, 0x14000b000
   140002e0c:	9130c021 	add	x1, x1, #0xc30
   140002e10:	9112c3e0 	add	x0, sp, #0x4b0
   140002e14:	f90263e8 	str	x8, [sp, #1216]
   140002e18:	b0000048 	adrp	x8, 0x14000b000
   140002e1c:	912ea108 	add	x8, x8, #0xba8
   140002e20:	f9025bff 	str	xzr, [sp, #1200]
   140002e24:	f90267e9 	str	x9, [sp, #1224]
   140002e28:	f9026fff 	str	xzr, [sp, #1240]
   140002e2c:	f9026be8 	str	x8, [sp, #1232]
   140002e30:	94001d49 	bl	0x14000a354
   140002e34:	d4200020 	brk	#0x1
   140002e38:	d0000082 	adrp	x2, 0x140014000
   140002e3c:	91152042 	add	x2, x2, #0x548
   140002e40:	d0000084 	adrp	x4, 0x140014000
   140002e44:	9116a084 	add	x4, x4, #0x5a8
   140002e48:	910923e1 	add	x1, sp, #0x248
   140002e4c:	9112c3e3 	add	x3, sp, #0x4b0
   140002e50:	2a1f03e0 	mov	w0, wzr
   140002e54:	f90263ff 	str	xzr, [sp, #1216]
   140002e58:	94001d10 	bl	0x14000a298
   140002e5c:	d4200020 	brk	#0x1
   140002e60:	b00000a8 	adrp	x8, 0x140017000
   140002e64:	a900d7f6 	stp	x22, x21, [sp, #8]
   140002e68:	528000a9 	mov	w9, #0x5                   	// #5
   140002e6c:	f9400108 	ldr	x8, [x8]
   140002e70:	f9000109 	str	x9, [x8]
   140002e74:	f9400108 	ldr	x8, [x8]
   140002e78:	f100091f 	cmp	x8, #0x2
   140002e7c:	54ffd8c9 	b.ls	0x140002994  // b.plast
   140002e80:	9112c3e8 	add	x8, sp, #0x4b0
   140002e84:	f0000029 	adrp	x9, 0x140009000
   140002e88:	91097129 	add	x9, x9, #0x25c
   140002e8c:	b000004a 	adrp	x10, 0x14000b000
   140002e90:	9137414a 	add	x10, x10, #0xdd0
   140002e94:	b0000042 	adrp	x2, 0x14000b000
   140002e98:	91386042 	add	x2, x2, #0xe18
   140002e9c:	910923e0 	add	x0, sp, #0x248
   140002ea0:	a90327e8 	stp	x8, x9, [sp, #48]
   140002ea4:	52800028 	mov	w8, #0x1                   	// #1
   140002ea8:	b0000049 	adrp	x9, 0x14000b000
   140002eac:	91378129 	add	x9, x9, #0xde0
   140002eb0:	f9012fea 	str	x10, [sp, #600]
   140002eb4:	9100c3ea 	add	x10, sp, #0x30
   140002eb8:	52800061 	mov	w1, #0x3                   	// #3
   140002ebc:	aa1f03e3 	mov	x3, xzr
   140002ec0:	f90133e8 	str	x8, [sp, #608]
   140002ec4:	f90127e9 	str	x9, [sp, #584]
   140002ec8:	f9012be8 	str	x8, [sp, #592]
   140002ecc:	f90137ea 	str	x10, [sp, #616]
   140002ed0:	f9013be8 	str	x8, [sp, #624]
   140002ed4:	94000780 	bl	0x140004cd4
   140002ed8:	17fffeaf 	b	0x140002994
   140002edc:	d10203ff 	sub	sp, sp, #0x80
   140002ee0:	91002009 	add	x9, x0, #0x8
   140002ee4:	9100400a 	add	x10, x0, #0x10
   140002ee8:	9100600b 	add	x11, x0, #0x18
   140002eec:	5280016c 	mov	w12, #0xb                   	// #11
   140002ef0:	aa0103e8 	mov	x8, x1
   140002ef4:	d0000041 	adrp	x1, 0x14000c000
   140002ef8:	91000021 	add	x1, x1, #0x0
   140002efc:	a905a7e0 	stp	x0, x9, [sp, #88]
   140002f00:	d0000049 	adrp	x9, 0x14000c000
   140002f04:	91022129 	add	x9, x9, #0x88
   140002f08:	a906fbea 	stp	x10, x30, [sp, #104]
   140002f0c:	d000004a 	adrp	x10, 0x14000c000
   140002f10:	9101ed4a 	add	x10, x10, #0x7b
   140002f14:	f9003feb 	str	x11, [sp, #120]
   140002f18:	f9002be9 	str	x9, [sp, #80]
   140002f1c:	9101a3e9 	add	x9, sp, #0x68
   140002f20:	d000004b 	adrp	x11, 0x14000c000
   140002f24:	9101416b 	add	x11, x11, #0x50
   140002f28:	d0000043 	adrp	x3, 0x14000c000
   140002f2c:	91003463 	add	x3, x3, #0xd
   140002f30:	a90227ec 	stp	x12, x9, [sp, #32]
   140002f34:	d0000049 	adrp	x9, 0x14000c000
   140002f38:	9101c129 	add	x9, x9, #0x70
   140002f3c:	a9032beb 	stp	x11, x10, [sp, #48]
   140002f40:	9101e3ea 	add	x10, sp, #0x78
   140002f44:	d0000046 	adrp	x6, 0x14000c000
   140002f48:	910080c6 	add	x6, x6, #0x20
   140002f4c:	d0000047 	adrp	x7, 0x14000c000
   140002f50:	910100e7 	add	x7, x7, #0x40
   140002f54:	a90127eb 	stp	x11, x9, [sp, #16]
   140002f58:	52800129 	mov	w9, #0x9                   	// #9
   140002f5c:	910183eb 	add	x11, sp, #0x60
   140002f60:	910163e5 	add	x5, sp, #0x58
   140002f64:	aa0803e0 	mov	x0, x8
   140002f68:	528001a2 	mov	w2, #0xd                   	// #13
   140002f6c:	52800204 	mov	w4, #0x10                  	// #16
   140002f70:	a9042be9 	stp	x9, x10, [sp, #64]
   140002f74:	a9002fe9 	stp	x9, x11, [sp]
   140002f78:	94001258 	bl	0x1400078d8
   140002f7c:	f9403bfe 	ldr	x30, [sp, #112]
   140002f80:	910203ff 	add	sp, sp, #0x80
   140002f84:	d65f03c0 	ret
   140002f88:	d10143ff 	sub	sp, sp, #0x50
   140002f8c:	f0000029 	adrp	x9, 0x140009000
   140002f90:	910bf129 	add	x9, x9, #0x2fc
   140002f94:	aa0103e8 	mov	x8, x1
   140002f98:	d000004a 	adrp	x10, 0x14000c000
   140002f9c:	9109c14a 	add	x10, x10, #0x270
   140002fa0:	5280002b 	mov	w11, #0x1                   	// #1
   140002fa4:	f940000c 	ldr	x12, [x0]
   140002fa8:	d000004d 	adrp	x13, 0x14000c000
   140002fac:	910a01ad 	add	x13, x13, #0x280
   140002fb0:	a903fbe9 	stp	x9, x30, [sp, #56]
   140002fb4:	9100c3e9 	add	x9, sp, #0x30
   140002fb8:	910003e1 	mov	x1, sp
   140002fbc:	aa0803e0 	mov	x0, x8
   140002fc0:	a9012fea 	stp	x10, x11, [sp, #16]
   140002fc4:	a902b3eb 	stp	x11, x12, [sp, #40]
   140002fc8:	a9002fed 	stp	x13, x11, [sp]
   140002fcc:	f90013e9 	str	x9, [sp, #32]
   140002fd0:	940011e4 	bl	0x140007760
   140002fd4:	f94023fe 	ldr	x30, [sp, #64]
   140002fd8:	910143ff 	add	sp, sp, #0x50
   140002fdc:	d65f03c0 	ret
   140002fe0:	d10143ff 	sub	sp, sp, #0x50
   140002fe4:	f940000a 	ldr	x10, [x0]
   140002fe8:	910123e9 	add	x9, sp, #0x48
   140002fec:	aa0103e8 	mov	x8, x1
   140002ff0:	b000000b 	adrp	x11, 0x140003000
   140002ff4:	9111316b 	add	x11, x11, #0x44c
   140002ff8:	d000004c 	adrp	x12, 0x14000c000
   140002ffc:	910ba18c 	add	x12, x12, #0x2e8
   140003000:	f940014a 	ldr	x10, [x10]
   140003004:	5280004d 	mov	w13, #0x2                   	// #2
   140003008:	b000004e 	adrp	x14, 0x14000c000
   14000300c:	910a01ce 	add	x14, x14, #0x280
   140003010:	f9001be9 	str	x9, [sp, #48]
   140003014:	d3748d4a 	ubfiz	x10, x10, #12, #36
   140003018:	52800029 	mov	w9, #0x1                   	// #1
   14000301c:	910003e1 	mov	x1, sp
   140003020:	aa0803e0 	mov	x0, x8
   140003024:	a90137ec 	stp	x12, x13, [sp, #16]
   140003028:	f90027ea 	str	x10, [sp, #72]
   14000302c:	9100c3ea 	add	x10, sp, #0x30
   140003030:	a903fbeb 	stp	x11, x30, [sp, #56]
   140003034:	a90027ee 	stp	x14, x9, [sp]
   140003038:	a90227ea 	stp	x10, x9, [sp, #32]
   14000303c:	940011c9 	bl	0x140007760
   140003040:	f94023fe 	ldr	x30, [sp, #64]
   140003044:	910143ff 	add	sp, sp, #0x50
   140003048:	d65f03c0 	ret
   14000304c:	d10343ff 	sub	sp, sp, #0xd0
   140003050:	f9400408 	ldr	x8, [x0, #8]
   140003054:	a90777fe 	stp	x30, x29, [sp, #112]
   140003058:	a9086ffc 	stp	x28, x27, [sp, #128]
   14000305c:	a90967fa 	stp	x26, x25, [sp, #144]
   140003060:	a90a5ff8 	stp	x24, x23, [sp, #160]
   140003064:	a90b57f6 	stp	x22, x21, [sp, #176]
   140003068:	a90c4ff4 	stp	x20, x19, [sp, #192]
   14000306c:	f90007e8 	str	x8, [sp, #8]
   140003070:	b40014c8 	cbz	x8, 0x140003308
   140003074:	ad408400 	ldp	q0, q1, [x0, #16]
   140003078:	aa0203f3 	mov	x19, x2
   14000307c:	aa0103f4 	mov	x20, x1
   140003080:	f9401808 	ldr	x8, [x0, #48]
   140003084:	ad0087e0 	stp	q0, q1, [sp, #16]
   140003088:	f9400016 	ldr	x22, [x0]
   14000308c:	910043e0 	add	x0, sp, #0x10
   140003090:	f9001be8 	str	x8, [sp, #48]
   140003094:	94000825 	bl	0x140005128
   140003098:	b4000f40 	cbz	x0, 0x140003280
   14000309c:	d3748ec8 	ubfiz	x8, x22, #12, #36
   1400030a0:	900000bb 	adrp	x27, 0x140017000
   1400030a4:	aa0003f8 	mov	x24, x0
   1400030a8:	aa1f03f5 	mov	x21, xzr
   1400030ac:	2a1f03f9 	mov	w25, wzr
   1400030b0:	b000005d 	adrp	x29, 0x14000c000
   1400030b4:	9102a3bd 	add	x29, x29, #0xa8
   1400030b8:	f90003e8 	str	x8, [sp]
   1400030bc:	f940037b 	ldr	x27, [x27]
   1400030c0:	5280003a 	mov	w26, #0x1                   	// #1
   1400030c4:	5280031c 	mov	w28, #0x18                  	// #24
   1400030c8:	b0000056 	adrp	x22, 0x14000c000
   1400030cc:	910702d6 	add	x22, x22, #0x1c0
   1400030d0:	b0000057 	adrp	x23, 0x14000c000
   1400030d4:	910742f7 	add	x23, x23, #0x1d0
   1400030d8:	14000005 	b	0x1400030ec
   1400030dc:	910043e0 	add	x0, sp, #0x10
   1400030e0:	94000812 	bl	0x140005128
   1400030e4:	aa0003f8 	mov	x24, x0
   1400030e8:	b4000bc0 	cbz	x0, 0x140003260
   1400030ec:	f9400368 	ldr	x8, [x27]
   1400030f0:	f100091f 	cmp	x8, #0x2
   1400030f4:	54000189 	b.ls	0x140003124  // b.plast
   1400030f8:	b0000048 	adrp	x8, 0x14000c000
   1400030fc:	9102e108 	add	x8, x8, #0xb8
   140003100:	910103e0 	add	x0, sp, #0x40
   140003104:	52800061 	mov	w1, #0x3                   	// #3
   140003108:	b0000042 	adrp	x2, 0x14000c000
   14000310c:	91048042 	add	x2, x2, #0x120
   140003110:	aa1f03e3 	mov	x3, xzr
   140003114:	a9056be8 	stp	x8, x26, [sp, #80]
   140003118:	f90023ff 	str	xzr, [sp, #64]
   14000311c:	a9067ffd 	stp	x29, xzr, [sp, #96]
   140003120:	940006ed 	bl	0x140004cd4
   140003124:	37000099 	tbnz	w25, #0, 0x140003134
   140003128:	f9400708 	ldr	x8, [x24, #8]
   14000312c:	f140411f 	cmp	x8, #0x10, lsl #12
   140003130:	540003e2 	b.cs	0x1400031ac  // b.hs, b.nlast
   140003134:	eb1302bf 	cmp	x21, x19
   140003138:	54000ba2 	b.cs	0x1400032ac  // b.hs, b.nlast
   14000313c:	b9400308 	ldr	w8, [x24]
   140003140:	51000509 	sub	w9, w8, #0x1
   140003144:	7100193f 	cmp	w9, #0x6
   140003148:	540000a8 	b.hi	0x14000315c  // b.pmore
   14000314c:	b000004a 	adrp	x10, 0x14000c000
   140003150:	910c214a 	add	x10, x10, #0x308
   140003154:	b869d949 	ldr	w9, [x10, w9, sxtw #2]
   140003158:	14000002 	b	0x140003160
   14000315c:	52800049 	mov	w9, #0x2                   	// #2
   140003160:	f9400f0a 	ldr	x10, [x24, #24]
   140003164:	9b1c52ab 	madd	x11, x21, x28, x20
   140003168:	f940070c 	ldr	x12, [x24, #8]
   14000316c:	910006b5 	add	x21, x21, #0x1
   140003170:	d374cd4a 	lsl	x10, x10, #12
   140003174:	29022169 	stp	w9, w8, [x11, #16]
   140003178:	a900296c 	stp	x12, x10, [x11]
   14000317c:	f9400368 	ldr	x8, [x27]
   140003180:	f100091f 	cmp	x8, #0x2
   140003184:	54fffac9 	b.ls	0x1400030dc  // b.plast
   140003188:	910103e0 	add	x0, sp, #0x40
   14000318c:	52800061 	mov	w1, #0x3                   	// #3
   140003190:	aa1703e2 	mov	x2, x23
   140003194:	aa1f03e3 	mov	x3, xzr
   140003198:	a9056bf6 	stp	x22, x26, [sp, #80]
   14000319c:	f90023ff 	str	xzr, [sp, #64]
   1400031a0:	a9067ffd 	stp	x29, xzr, [sp, #96]
   1400031a4:	940006cc 	bl	0x140004cd4
   1400031a8:	17ffffcd 	b	0x1400030dc
   1400031ac:	b9400309 	ldr	w9, [x24]
   1400031b0:	5100052a 	sub	w10, w9, #0x1
   1400031b4:	7100115f 	cmp	w10, #0x4
   1400031b8:	54000063 	b.cc	0x1400031c4  // b.lo, b.ul, b.last
   1400031bc:	71001d3f 	cmp	w9, #0x7
   1400031c0:	54fffba1 	b.ne	0x140003134  // b.any
   1400031c4:	f94007e9 	ldr	x9, [sp, #8]
   1400031c8:	f9400529 	ldr	x9, [x9, #8]
   1400031cc:	eb09011f 	cmp	x8, x9
   1400031d0:	54000201 	b.ne	0x140003210  // b.any
   1400031d4:	eb1302bf 	cmp	x21, x19
   1400031d8:	54000762 	b.cs	0x1400032c4  // b.hs, b.nlast
   1400031dc:	f94003e9 	ldr	x9, [sp]
   1400031e0:	9b1c52aa 	madd	x10, x21, x28, x20
   1400031e4:	52800039 	mov	w25, #0x1                   	// #1
   1400031e8:	910006a0 	add	x0, x21, #0x1
   1400031ec:	cb080129 	sub	x9, x9, x8
   1400031f0:	b9001159 	str	w25, [x10, #16]
   1400031f4:	a9002548 	stp	x8, x9, [x10]
   1400031f8:	f9400f08 	ldr	x8, [x24, #24]
   1400031fc:	d374cd08 	lsl	x8, x8, #12
   140003200:	eb090108 	subs	x8, x8, x9
   140003204:	540001a1 	b.ne	0x140003238  // b.any
   140003208:	aa0003f5 	mov	x21, x0
   14000320c:	17ffffdc 	b	0x14000317c
   140003210:	eb1302bf 	cmp	x21, x19
   140003214:	54000642 	b.cs	0x1400032dc  // b.hs, b.nlast
   140003218:	f9400f09 	ldr	x9, [x24, #24]
   14000321c:	9b1c52aa 	madd	x10, x21, x28, x20
   140003220:	2a1f03f9 	mov	w25, wzr
   140003224:	910006b5 	add	x21, x21, #0x1
   140003228:	d374cd29 	lsl	x9, x9, #12
   14000322c:	b900115a 	str	w26, [x10, #16]
   140003230:	a9002548 	stp	x8, x9, [x10]
   140003234:	17ffffd2 	b	0x14000317c
   140003238:	eb13001f 	cmp	x0, x19
   14000323c:	540005c2 	b.cs	0x1400032f4  // b.hs, b.nlast
   140003240:	f940070a 	ldr	x10, [x24, #8]
   140003244:	9b1c52ab 	madd	x11, x21, x28, x20
   140003248:	91000ab5 	add	x21, x21, #0x2
   14000324c:	52800039 	mov	w25, #0x1                   	// #1
   140003250:	8b090149 	add	x9, x10, x9
   140003254:	b900297f 	str	wzr, [x11, #40]
   140003258:	a901a169 	stp	x9, x8, [x11, #24]
   14000325c:	17ffffc8 	b	0x14000317c
   140003260:	eb1302bf 	cmp	x21, x19
   140003264:	54000109 	b.ls	0x140003284  // b.plast
   140003268:	b0000042 	adrp	x2, 0x14000c000
   14000326c:	91082042 	add	x2, x2, #0x208
   140003270:	aa1503e0 	mov	x0, x21
   140003274:	aa1303e1 	mov	x1, x19
   140003278:	94001cd8 	bl	0x14000a5d8
   14000327c:	d4200020 	brk	#0x1
   140003280:	aa1f03f5 	mov	x21, xzr
   140003284:	aa1403e0 	mov	x0, x20
   140003288:	aa1503e1 	mov	x1, x21
   14000328c:	a94c4ff4 	ldp	x20, x19, [sp, #192]
   140003290:	a94b57f6 	ldp	x22, x21, [sp, #176]
   140003294:	a94a5ff8 	ldp	x24, x23, [sp, #160]
   140003298:	a94967fa 	ldp	x26, x25, [sp, #144]
   14000329c:	a9486ffc 	ldp	x28, x27, [sp, #128]
   1400032a0:	a94777fe 	ldp	x30, x29, [sp, #112]
   1400032a4:	910343ff 	add	sp, sp, #0xd0
   1400032a8:	d65f03c0 	ret
   1400032ac:	b0000042 	adrp	x2, 0x14000c000
   1400032b0:	91056042 	add	x2, x2, #0x158
   1400032b4:	aa1503e0 	mov	x0, x21
   1400032b8:	aa1303e1 	mov	x1, x19
   1400032bc:	94001c3f 	bl	0x14000a3b8
   1400032c0:	d4200020 	brk	#0x1
   1400032c4:	b0000042 	adrp	x2, 0x14000c000
   1400032c8:	9105c042 	add	x2, x2, #0x170
   1400032cc:	aa1503e0 	mov	x0, x21
   1400032d0:	aa1303e1 	mov	x1, x19
   1400032d4:	94001c39 	bl	0x14000a3b8
   1400032d8:	d4200020 	brk	#0x1
   1400032dc:	b0000042 	adrp	x2, 0x14000c000
   1400032e0:	91068042 	add	x2, x2, #0x1a0
   1400032e4:	aa1503e0 	mov	x0, x21
   1400032e8:	aa1303e1 	mov	x1, x19
   1400032ec:	94001c33 	bl	0x14000a3b8
   1400032f0:	d4200020 	brk	#0x1
   1400032f4:	b0000042 	adrp	x2, 0x14000c000
   1400032f8:	91062042 	add	x2, x2, #0x188
   1400032fc:	aa1303e1 	mov	x1, x19
   140003300:	94001c2e 	bl	0x14000a3b8
   140003304:	d4200020 	brk	#0x1
   140003308:	b0000040 	adrp	x0, 0x14000c000
   14000330c:	91088000 	add	x0, x0, #0x220
   140003310:	b0000042 	adrp	x2, 0x14000c000
   140003314:	91094042 	add	x2, x2, #0x250
   140003318:	52800561 	mov	w1, #0x2b                  	// #43
   14000331c:	94001c1a 	bl	0x14000a384
   140003320:	d4200020 	brk	#0x1
   140003324:	f81e0ffe 	str	x30, [sp, #-32]!
   140003328:	f9400409 	ldr	x9, [x0, #8]
   14000332c:	a9014ff4 	stp	x20, x19, [sp, #16]
   140003330:	aa0003f3 	mov	x19, x0
   140003334:	f100013f 	cmp	x9, #0x0
   140003338:	9a8003e8 	csel	x8, xzr, x0, eq	// eq = none
   14000333c:	b4000369 	cbz	x9, 0x1400033a8
   140003340:	a9402501 	ldp	x1, x9, [x8]
   140003344:	f940052a 	ldr	x10, [x9, #8]
   140003348:	f9400d29 	ldr	x9, [x9, #24]
   14000334c:	9240bd4a 	and	x10, x10, #0xffffffffffff
   140003350:	ab093149 	adds	x9, x10, x9, lsl #12
   140003354:	da9f3129 	csinv	x9, x9, xzr, cc	// cc = lo, ul, last
   140003358:	9240bd29 	and	x9, x9, #0xffffffffffff
   14000335c:	f1000529 	subs	x9, x9, #0x1
   140003360:	9a8933e9 	csel	x9, xzr, x9, cc	// cc = lo, ul, last
   140003364:	eb49303f 	cmp	x1, x9, lsr #12
   140003368:	1a9f07e9 	cset	w9, ne	// ne = any
   14000336c:	5a9f2129 	csinv	w9, w9, wzr, cs	// cs = hs, nlast
   140003370:	34000089 	cbz	w9, 0x140003380
   140003374:	12001d29 	and	w9, w9, #0xff
   140003378:	7103fd3f 	cmp	w9, #0xff
   14000337c:	54000161 	b.ne	0x1400033a8  // b.any
   140003380:	b1000429 	adds	x9, x1, #0x1
   140003384:	92fffe0a 	mov	x10, #0xfffffffffffff       	// #4503599627370495
   140003388:	da9f3129 	csinv	x9, x9, xzr, cc	// cc = lo, ul, last
   14000338c:	52800020 	mov	w0, #0x1                   	// #1
   140003390:	eb0a013f 	cmp	x9, x10
   140003394:	9a8a3129 	csel	x9, x9, x10, cc	// cc = lo, ul, last
   140003398:	f9000109 	str	x9, [x8]
   14000339c:	a9414ff4 	ldp	x20, x19, [sp, #16]
   1400033a0:	f84207fe 	ldr	x30, [sp], #32
   1400033a4:	d65f03c0 	ret
   1400033a8:	9100e274 	add	x20, x19, #0x38
   1400033ac:	aa1403e0 	mov	x0, x20
   1400033b0:	9400075e 	bl	0x140005128
   1400033b4:	b50000e0 	cbnz	x0, 0x1400033d0
   1400033b8:	a9414ff4 	ldp	x20, x19, [sp, #16]
   1400033bc:	f84207fe 	ldr	x30, [sp], #32
   1400033c0:	d65f03c0 	ret
   1400033c4:	aa1403e0 	mov	x0, x20
   1400033c8:	94000758 	bl	0x140005128
   1400033cc:	b4ffff60 	cbz	x0, 0x1400033b8
   1400033d0:	b9400008 	ldr	w8, [x0]
   1400033d4:	51000509 	sub	w9, w8, #0x1
   1400033d8:	7100113f 	cmp	w9, #0x4
   1400033dc:	7a472904 	ccmp	w8, #0x7, #0x4, cs	// cs = hs, nlast
   1400033e0:	54ffff21 	b.ne	0x1400033c4  // b.any
   1400033e4:	f9400408 	ldr	x8, [x0, #8]
   1400033e8:	f140411f 	cmp	x8, #0x10, lsl #12
   1400033ec:	54fffec3 	b.cc	0x1400033c4  // b.lo, b.ul, b.last
   1400033f0:	d34cbd01 	ubfx	x1, x8, #12, #36
   1400033f4:	a9000261 	stp	x1, x0, [x19]
   1400033f8:	f9400408 	ldr	x8, [x0, #8]
   1400033fc:	f9400c09 	ldr	x9, [x0, #24]
   140003400:	9240bd08 	and	x8, x8, #0xffffffffffff
   140003404:	ab093108 	adds	x8, x8, x9, lsl #12
   140003408:	da9f3108 	csinv	x8, x8, xzr, cc	// cc = lo, ul, last
   14000340c:	9240bd08 	and	x8, x8, #0xffffffffffff
   140003410:	f1000508 	subs	x8, x8, #0x1
   140003414:	9a8833e8 	csel	x8, xzr, x8, cc	// cc = lo, ul, last
   140003418:	eb48303f 	cmp	x1, x8, lsr #12
   14000341c:	1a9f07e8 	cset	w8, ne	// ne = any
   140003420:	5a9f2108 	csinv	w8, w8, wzr, cs	// cs = hs, nlast
   140003424:	34000088 	cbz	w8, 0x140003434
   140003428:	12001d08 	and	w8, w8, #0xff
   14000342c:	7103fd1f 	cmp	w8, #0xff
   140003430:	54fffca1 	b.ne	0x1400033c4  // b.any
   140003434:	91000428 	add	x8, x1, #0x1
   140003438:	52800020 	mov	w0, #0x1                   	// #1
   14000343c:	f9000268 	str	x8, [x19]
   140003440:	a9414ff4 	ldp	x20, x19, [sp, #16]
   140003444:	f84207fe 	ldr	x30, [sp], #32
   140003448:	d65f03c0 	ret
   14000344c:	140017ac 	b	0x1400092fc
   140003450:	d10143ff 	sub	sp, sp, #0x50
   140003454:	910123e9 	add	x9, sp, #0x48
   140003458:	f940000c 	ldr	x12, [x0]
   14000345c:	9000000a 	adrp	x10, 0x140003000
   140003460:	9111314a 	add	x10, x10, #0x44c
   140003464:	aa0103e8 	mov	x8, x1
   140003468:	b000004b 	adrp	x11, 0x14000c000
   14000346c:	910b016b 	add	x11, x11, #0x2c0
   140003470:	f9001be9 	str	x9, [sp, #48]
   140003474:	d3748d89 	ubfiz	x9, x12, #12, #36
   140003478:	b000004d 	adrp	x13, 0x14000c000
   14000347c:	910a01ad 	add	x13, x13, #0x280
   140003480:	5280004e 	mov	w14, #0x2                   	// #2
   140003484:	a903fbea 	stp	x10, x30, [sp, #56]
   140003488:	5280002a 	mov	w10, #0x1                   	// #1
   14000348c:	f90027e9 	str	x9, [sp, #72]
   140003490:	9100c3e9 	add	x9, sp, #0x30
   140003494:	910003e1 	mov	x1, sp
   140003498:	aa0803e0 	mov	x0, x8
   14000349c:	a9013beb 	stp	x11, x14, [sp, #16]
   1400034a0:	a9002bed 	stp	x13, x10, [sp]
   1400034a4:	a9022be9 	stp	x9, x10, [sp, #32]
   1400034a8:	940010ae 	bl	0x140007760
   1400034ac:	f94023fe 	ldr	x30, [sp, #64]
   1400034b0:	910143ff 	add	sp, sp, #0x50
   1400034b4:	d65f03c0 	ret
   1400034b8:	d10143ff 	sub	sp, sp, #0x50
   1400034bc:	910123e9 	add	x9, sp, #0x48
   1400034c0:	f940000c 	ldr	x12, [x0]
   1400034c4:	9000000a 	adrp	x10, 0x140003000
   1400034c8:	9111314a 	add	x10, x10, #0x44c
   1400034cc:	aa0103e8 	mov	x8, x1
   1400034d0:	b000004b 	adrp	x11, 0x14000c000
   1400034d4:	910ba16b 	add	x11, x11, #0x2e8
   1400034d8:	f9001be9 	str	x9, [sp, #48]
   1400034dc:	d3748d89 	ubfiz	x9, x12, #12, #36
   1400034e0:	b000004d 	adrp	x13, 0x14000c000
   1400034e4:	910a01ad 	add	x13, x13, #0x280
   1400034e8:	5280004e 	mov	w14, #0x2                   	// #2
   1400034ec:	a903fbea 	stp	x10, x30, [sp, #56]
   1400034f0:	5280002a 	mov	w10, #0x1                   	// #1
   1400034f4:	f90027e9 	str	x9, [sp, #72]
   1400034f8:	9100c3e9 	add	x9, sp, #0x30
   1400034fc:	910003e1 	mov	x1, sp
   140003500:	aa0803e0 	mov	x0, x8
   140003504:	a9013beb 	stp	x11, x14, [sp, #16]
   140003508:	a9002bed 	stp	x13, x10, [sp]
   14000350c:	a9022be9 	stp	x9, x10, [sp, #32]
   140003510:	94001094 	bl	0x140007760
   140003514:	f94023fe 	ldr	x30, [sp, #64]
   140003518:	910143ff 	add	sp, sp, #0x50
   14000351c:	d65f03c0 	ret
   140003520:	f81f0ffe 	str	x30, [sp, #-16]!
   140003524:	f9400000 	ldr	x0, [x0]
   140003528:	7102003f 	cmp	w1, #0x80
   14000352c:	b9000fff 	str	wzr, [sp, #12]
   140003530:	54000102 	b.cs	0x140003550  // b.hs, b.nlast
   140003534:	52800022 	mov	w2, #0x1                   	// #1
   140003538:	390033e1 	strb	w1, [sp, #12]
   14000353c:	910033e1 	add	x1, sp, #0xc
   140003540:	94000089 	bl	0x140003764
   140003544:	2a1f03e0 	mov	w0, wzr
   140003548:	f84107fe 	ldr	x30, [sp], #16
   14000354c:	d65f03c0 	ret
   140003550:	7120003f 	cmp	w1, #0x800
   140003554:	540001a2 	b.cs	0x140003588  // b.hs, b.nlast
   140003558:	53067c28 	lsr	w8, w1, #6
   14000355c:	52801009 	mov	w9, #0x80                  	// #128
   140003560:	321a0508 	orr	w8, w8, #0xc0
   140003564:	33001429 	bfxil	w9, w1, #0, #6
   140003568:	52800042 	mov	w2, #0x2                   	// #2
   14000356c:	390033e8 	strb	w8, [sp, #12]
   140003570:	390037e9 	strb	w9, [sp, #13]
   140003574:	910033e1 	add	x1, sp, #0xc
   140003578:	9400007b 	bl	0x140003764
   14000357c:	2a1f03e0 	mov	w0, wzr
   140003580:	f84107fe 	ldr	x30, [sp], #16
   140003584:	d65f03c0 	ret
   140003588:	7140403f 	cmp	w1, #0x10, lsl #12
   14000358c:	54000202 	b.cs	0x1400035cc  // b.hs, b.nlast
   140003590:	530c7c28 	lsr	w8, w1, #12
   140003594:	52801009 	mov	w9, #0x80                  	// #128
   140003598:	5280100a 	mov	w10, #0x80                  	// #128
   14000359c:	321b0908 	orr	w8, w8, #0xe0
   1400035a0:	33062c29 	bfxil	w9, w1, #6, #6
   1400035a4:	3300142a 	bfxil	w10, w1, #0, #6
   1400035a8:	52800062 	mov	w2, #0x3                   	// #3
   1400035ac:	390033e8 	strb	w8, [sp, #12]
   1400035b0:	390037e9 	strb	w9, [sp, #13]
   1400035b4:	39003bea 	strb	w10, [sp, #14]
   1400035b8:	910033e1 	add	x1, sp, #0xc
   1400035bc:	9400006a 	bl	0x140003764
   1400035c0:	2a1f03e0 	mov	w0, wzr
   1400035c4:	f84107fe 	ldr	x30, [sp], #16
   1400035c8:	d65f03c0 	ret
   1400035cc:	52801e08 	mov	w8, #0xf0                  	// #240
   1400035d0:	52801009 	mov	w9, #0x80                  	// #128
   1400035d4:	5280100a 	mov	w10, #0x80                  	// #128
   1400035d8:	5280100b 	mov	w11, #0x80                  	// #128
   1400035dc:	33125028 	bfxil	w8, w1, #18, #3
   1400035e0:	330c4429 	bfxil	w9, w1, #12, #6
   1400035e4:	33062c2a 	bfxil	w10, w1, #6, #6
   1400035e8:	3300142b 	bfxil	w11, w1, #0, #6
   1400035ec:	52800082 	mov	w2, #0x4                   	// #4
   1400035f0:	390033e8 	strb	w8, [sp, #12]
   1400035f4:	390037e9 	strb	w9, [sp, #13]
   1400035f8:	39003bea 	strb	w10, [sp, #14]
   1400035fc:	39003feb 	strb	w11, [sp, #15]
   140003600:	910033e1 	add	x1, sp, #0xc
   140003604:	94000058 	bl	0x140003764
   140003608:	2a1f03e0 	mov	w0, wzr
   14000360c:	f84107fe 	ldr	x30, [sp], #16
   140003610:	d65f03c0 	ret
   140003614:	d10103ff 	sub	sp, sp, #0x40
   140003618:	ad400420 	ldp	q0, q1, [x1]
   14000361c:	910003e2 	mov	x2, sp
   140003620:	f9400008 	ldr	x8, [x0]
   140003624:	9100e3e0 	add	x0, sp, #0x38
   140003628:	3dc00822 	ldr	q2, [x1, #32]
   14000362c:	b0000081 	adrp	x1, 0x140014000
   140003630:	9100c021 	add	x1, x1, #0x30
   140003634:	ad0007e0 	stp	q0, q1, [sp]
   140003638:	a90323fe 	stp	x30, x8, [sp, #48]
   14000363c:	3d800be2 	str	q2, [sp, #32]
   140003640:	94000d5e 	bl	0x140006bb8
   140003644:	f9401bfe 	ldr	x30, [sp, #48]
   140003648:	910103ff 	add	sp, sp, #0x40
   14000364c:	d65f03c0 	ret
   140003650:	f81f0ffe 	str	x30, [sp, #-16]!
   140003654:	f9400000 	ldr	x0, [x0]
   140003658:	94000043 	bl	0x140003764
   14000365c:	2a1f03e0 	mov	w0, wzr
   140003660:	f84107fe 	ldr	x30, [sp], #16
   140003664:	d65f03c0 	ret
   140003668:	52800020 	mov	w0, #0x1                   	// #1
   14000366c:	d65f03c0 	ret
   140003670:	d10203ff 	sub	sp, sp, #0x80
   140003674:	a9074ffe 	stp	x30, x19, [sp, #112]
   140003678:	aa0003f3 	mov	x19, x0
   14000367c:	085ffc08 	ldaxrb	w8, [x0]
   140003680:	34000568 	cbz	w8, 0x14000372c
   140003684:	d5033f5f 	clrex
   140003688:	52800028 	mov	w8, #0x1                   	// #1
   14000368c:	14000002 	b	0x140003694
   140003690:	d5033fdf 	isb
   140003694:	39400269 	ldrb	w9, [x19]
   140003698:	35ffffc9 	cbnz	w9, 0x140003690
   14000369c:	085ffe69 	ldaxrb	w9, [x19]
   1400036a0:	35ffff29 	cbnz	w9, 0x140003684
   1400036a4:	08097e68 	stxrb	w9, w8, [x19]
   1400036a8:	35ffff69 	cbnz	w9, 0x140003694
   1400036ac:	f9402428 	ldr	x8, [x1, #72]
   1400036b0:	910083e9 	add	x9, sp, #0x20
   1400036b4:	b000000a 	adrp	x10, 0x140004000
   1400036b8:	9130e14a 	add	x10, x10, #0xc38
   1400036bc:	5280006b 	mov	w11, #0x3                   	// #3
   1400036c0:	9100c3e0 	add	x0, sp, #0x30
   1400036c4:	a90207e8 	stp	x8, x1, [sp, #32]
   1400036c8:	9100a3e8 	add	x8, sp, #0x28
   1400036cc:	a9002be9 	stp	x9, x10, [sp]
   1400036d0:	f0ffffe9 	adrp	x9, 0x140002000
   1400036d4:	91143129 	add	x9, x9, #0x50c
   1400036d8:	9100226a 	add	x10, x19, #0x8
   1400036dc:	b0000081 	adrp	x1, 0x140014000
   1400036e0:	9100c021 	add	x1, x1, #0x30
   1400036e4:	9100e3e2 	add	x2, sp, #0x38
   1400036e8:	a90127e8 	stp	x8, x9, [sp, #16]
   1400036ec:	b0000088 	adrp	x8, 0x140014000
   1400036f0:	91036108 	add	x8, x8, #0xd8
   1400036f4:	52800049 	mov	w9, #0x2                   	// #2
   1400036f8:	a90323ea 	stp	x10, x8, [sp, #48]
   1400036fc:	b000008a 	adrp	x10, 0x140014000
   140003700:	9102a14a 	add	x10, x10, #0xa8
   140003704:	910003e8 	mov	x8, sp
   140003708:	f90033e9 	str	x9, [sp, #96]
   14000370c:	a9042be9 	stp	x9, x10, [sp, #64]
   140003710:	a90523eb 	stp	x11, x8, [sp, #80]
   140003714:	94000d29 	bl	0x140006bb8
   140003718:	37000120 	tbnz	w0, #0, 0x14000373c
   14000371c:	089ffe7f 	stlrb	wzr, [x19]
   140003720:	a9474ffe 	ldp	x30, x19, [sp, #112]
   140003724:	910203ff 	add	sp, sp, #0x80
   140003728:	d65f03c0 	ret
   14000372c:	52800028 	mov	w8, #0x1                   	// #1
   140003730:	08097e68 	stxrb	w9, w8, [x19]
   140003734:	35fffaa9 	cbnz	w9, 0x140003688
   140003738:	17ffffdd 	b	0x1400036ac
   14000373c:	b0000080 	adrp	x0, 0x140014000
   140003740:	91052000 	add	x0, x0, #0x148
   140003744:	b0000083 	adrp	x3, 0x140014000
   140003748:	9105e063 	add	x3, x3, #0x178
   14000374c:	b0000084 	adrp	x4, 0x140014000
   140003750:	91066084 	add	x4, x4, #0x198
   140003754:	9101a3e2 	add	x2, sp, #0x68
   140003758:	52800561 	mov	w1, #0x2b                  	// #43
   14000375c:	94001b87 	bl	0x14000a578
   140003760:	d4200020 	brk	#0x1
   140003764:	d10303ff 	sub	sp, sp, #0xc0
   140003768:	a90677fe 	stp	x30, x29, [sp, #96]
   14000376c:	a9076ffc 	stp	x28, x27, [sp, #112]
   140003770:	a90867fa 	stp	x26, x25, [sp, #128]
   140003774:	a9095ff8 	stp	x24, x23, [sp, #144]
   140003778:	a90a57f6 	stp	x22, x21, [sp, #160]
   14000377c:	a90b4ff4 	stp	x20, x19, [sp, #176]
   140003780:	b4005ec2 	cbz	x2, 0x140004358
   140003784:	a9432013 	ldp	x19, x8, [x0, #48]
   140003788:	8b02002b 	add	x11, x1, x2
   14000378c:	aa0103f5 	mov	x21, x1
   140003790:	a941a40a 	ldp	x10, x9, [x0, #24]
   140003794:	f9000fe0 	str	x0, [sp, #24]
   140003798:	a900afe8 	stp	x8, x11, [sp, #8]
   14000379c:	a9022be9 	stp	x9, x10, [sp, #32]
   1400037a0:	9b087e69 	mul	x9, x19, x8
   1400037a4:	a9405008 	ldp	x8, x20, [x0]
   1400037a8:	a90427e8 	stp	x8, x9, [sp, #64]
   1400037ac:	52800028 	mov	w8, #0x1                   	// #1
   1400037b0:	f90003e8 	str	x8, [sp]
   1400037b4:	b9402808 	ldr	w8, [x0, #40]
   1400037b8:	b9005be8 	str	w8, [sp, #88]
   1400037bc:	14000008 	b	0x1400037dc
   1400037c0:	f9402408 	ldr	x8, [x0, #72]
   1400037c4:	91004909 	add	x9, x8, #0x12
   1400037c8:	52800028 	mov	w8, #0x1                   	// #1
   1400037cc:	f9002409 	str	x9, [x0, #72]
   1400037d0:	eb0b02bf 	cmp	x21, x11
   1400037d4:	f9002008 	str	x8, [x0, #64]
   1400037d8:	54005c00 	b.eq	0x140004358  // b.none
   1400037dc:	aa1503e8 	mov	x8, x21
   1400037e0:	38c0150a 	ldrsb	w10, [x8], #1
   1400037e4:	12001d49 	and	w9, w10, #0xff
   1400037e8:	37f800ca 	tbnz	w10, #31, 0x140003800
   1400037ec:	2a0903f8 	mov	w24, w9
   1400037f0:	aa0803f5 	mov	x21, x8
   1400037f4:	7100293f 	cmp	w9, #0xa
   1400037f8:	54000401 	b.ne	0x140003878  // b.any
   1400037fc:	17fffff1 	b	0x1400037c0
   140003800:	394006aa 	ldrb	w10, [x21, #1]
   140003804:	12001128 	and	w8, w9, #0x1f
   140003808:	71037d3f 	cmp	w9, #0xdf
   14000380c:	12001558 	and	w24, w10, #0x3f
   140003810:	54000209 	b.ls	0x140003850  // b.plast
   140003814:	39400aaa 	ldrb	w10, [x21, #2]
   140003818:	7103c13f 	cmp	w9, #0xf0
   14000381c:	1200154a 	and	w10, w10, #0x3f
   140003820:	331a170a 	bfi	w10, w24, #6, #6
   140003824:	54000203 	b.cc	0x140003864  // b.lo, b.ul, b.last
   140003828:	39400ea9 	ldrb	w9, [x21, #3]
   14000382c:	12001538 	and	w24, w9, #0x3f
   140003830:	331a2d58 	bfi	w24, w10, #6, #12
   140003834:	330e0918 	bfi	w24, w8, #18, #3
   140003838:	7144431f 	cmp	w24, #0x110, lsl #12
   14000383c:	540058e0 	b.eq	0x140004358  // b.none
   140003840:	910012b5 	add	x21, x21, #0x4
   140003844:	71002b1f 	cmp	w24, #0xa
   140003848:	54000181 	b.ne	0x140003878  // b.any
   14000384c:	17ffffdd 	b	0x1400037c0
   140003850:	91000ab5 	add	x21, x21, #0x2
   140003854:	331a1118 	bfi	w24, w8, #6, #5
   140003858:	71002b1f 	cmp	w24, #0xa
   14000385c:	540000e1 	b.ne	0x140003878  // b.any
   140003860:	17ffffd8 	b	0x1400037c0
   140003864:	3314110a 	bfi	w10, w8, #12, #5
   140003868:	91000eb5 	add	x21, x21, #0x3
   14000386c:	2a0a03f8 	mov	w24, w10
   140003870:	7100295f 	cmp	w10, #0xa
   140003874:	54fffa60 	b.eq	0x1400037c0  // b.none
   140003878:	7100371f 	cmp	w24, #0xd
   14000387c:	54000061 	b.ne	0x140003888  // b.any
   140003880:	52800028 	mov	w8, #0x1                   	// #1
   140003884:	17ffffd3 	b	0x1400037d0
   140003888:	a944200d 	ldp	x13, x8, [x0, #64]
   14000388c:	f94017ea 	ldr	x10, [sp, #40]
   140003890:	910025a9 	add	x9, x13, #0x9
   140003894:	eb0a013f 	cmp	x9, x10
   140003898:	540000a3 	b.cc	0x1400038ac  // b.lo, b.ul, b.last
   14000389c:	91004908 	add	x8, x8, #0x12
   1400038a0:	52800029 	mov	w9, #0x1                   	// #1
   1400038a4:	5280002d 	mov	w13, #0x1                   	// #1
   1400038a8:	a9042009 	stp	x9, x8, [x0, #64]
   1400038ac:	f94013ea 	ldr	x10, [sp, #32]
   1400038b0:	91004509 	add	x9, x8, #0x11
   1400038b4:	eb0a013f 	cmp	x9, x10
   1400038b8:	54000183 	b.cc	0x1400038e8  // b.lo, b.ul, b.last
   1400038bc:	52800028 	mov	w8, #0x1                   	// #1
   1400038c0:	5280002d 	mov	w13, #0x1                   	// #1
   1400038c4:	52800029 	mov	w9, #0x1                   	// #1
   1400038c8:	f9002409 	str	x9, [x0, #72]
   1400038cc:	b40000f4 	cbz	x20, 0x1400038e8
   1400038d0:	f94023e0 	ldr	x0, [sp, #64]
   1400038d4:	2a1f03e1 	mov	w1, wzr
   1400038d8:	aa1403e2 	mov	x2, x20
   1400038dc:	94001868 	bl	0x140009a7c
   1400038e0:	52800028 	mov	w8, #0x1                   	// #1
   1400038e4:	5280002d 	mov	w13, #0x1                   	// #1
   1400038e8:	51008309 	sub	w9, w24, #0x20
   1400038ec:	7101793f 	cmp	w9, #0x5e
   1400038f0:	540001e8 	b.hi	0x14000392c  // b.pmore
   1400038f4:	b000008c 	adrp	x12, 0x140014000
   1400038f8:	9107e18c 	add	x12, x12, #0x1f8
   1400038fc:	9000008e 	adrp	x14, 0x140013000
   140003900:	913cc1ce 	add	x14, x14, #0xf30
   140003904:	1000008a 	adr	x10, 0x140003914
   140003908:	7869798b 	ldrh	w11, [x12, x9, lsl #1]
   14000390c:	8b0b094a 	add	x10, x10, x11, lsl #2
   140003910:	d61f0140 	br	x10
   140003914:	9000008e 	adrp	x14, 0x140013000
   140003918:	9138c1ce 	add	x14, x14, #0xe30
   14000391c:	f100127f 	cmp	x19, #0x4
   140003920:	a90337f5 	stp	x21, x13, [sp, #48]
   140003924:	54004688 	b.hi	0x1400041f4  // b.pmore
   140003928:	1400025c 	b	0x140004298
   14000392c:	b000004e 	adrp	x14, 0x14000c000
   140003930:	910ec1ce 	add	x14, x14, #0x3b0
   140003934:	529fffa9 	mov	w9, #0xfffd                	// #65533
   140003938:	6b09031f 	cmp	w24, w9
   14000393c:	54004561 	b.ne	0x1400041e8  // b.any
   140003940:	b000004e 	adrp	x14, 0x14000c000
   140003944:	910ec1ce 	add	x14, x14, #0x3b0
   140003948:	f100127f 	cmp	x19, #0x4
   14000394c:	a90337f5 	stp	x21, x13, [sp, #48]
   140003950:	54004528 	b.hi	0x1400041f4  // b.pmore
   140003954:	14000251 	b	0x140004298
   140003958:	9000008e 	adrp	x14, 0x140013000
   14000395c:	9133a1ce 	add	x14, x14, #0xce8
   140003960:	f100127f 	cmp	x19, #0x4
   140003964:	a90337f5 	stp	x21, x13, [sp, #48]
   140003968:	54004468 	b.hi	0x1400041f4  // b.pmore
   14000396c:	1400024b 	b	0x140004298
   140003970:	9000008e 	adrp	x14, 0x140013000
   140003974:	912f01ce 	add	x14, x14, #0xbc0
   140003978:	f100127f 	cmp	x19, #0x4
   14000397c:	a90337f5 	stp	x21, x13, [sp, #48]
   140003980:	540043a8 	b.hi	0x1400041f4  // b.pmore
   140003984:	14000245 	b	0x140004298
   140003988:	9000008e 	adrp	x14, 0x140013000
   14000398c:	912981ce 	add	x14, x14, #0xa60
   140003990:	f100127f 	cmp	x19, #0x4
   140003994:	a90337f5 	stp	x21, x13, [sp, #48]
   140003998:	540042e8 	b.hi	0x1400041f4  // b.pmore
   14000399c:	1400023f 	b	0x140004298
   1400039a0:	9000008e 	adrp	x14, 0x140013000
   1400039a4:	9123c1ce 	add	x14, x14, #0x8f0
   1400039a8:	f100127f 	cmp	x19, #0x4
   1400039ac:	a90337f5 	stp	x21, x13, [sp, #48]
   1400039b0:	54004228 	b.hi	0x1400041f4  // b.pmore
   1400039b4:	14000239 	b	0x140004298
   1400039b8:	9000008e 	adrp	x14, 0x140013000
   1400039bc:	911e01ce 	add	x14, x14, #0x780
   1400039c0:	f100127f 	cmp	x19, #0x4
   1400039c4:	a90337f5 	stp	x21, x13, [sp, #48]
   1400039c8:	54004168 	b.hi	0x1400041f4  // b.pmore
   1400039cc:	14000233 	b	0x140004298
   1400039d0:	9000008e 	adrp	x14, 0x140013000
   1400039d4:	911841ce 	add	x14, x14, #0x610
   1400039d8:	f100127f 	cmp	x19, #0x4
   1400039dc:	a90337f5 	stp	x21, x13, [sp, #48]
   1400039e0:	540040a8 	b.hi	0x1400041f4  // b.pmore
   1400039e4:	1400022d 	b	0x140004298
   1400039e8:	9000008e 	adrp	x14, 0x140013000
   1400039ec:	9113a1ce 	add	x14, x14, #0x4e8
   1400039f0:	f100127f 	cmp	x19, #0x4
   1400039f4:	a90337f5 	stp	x21, x13, [sp, #48]
   1400039f8:	54003fe8 	b.hi	0x1400041f4  // b.pmore
   1400039fc:	14000227 	b	0x140004298
   140003a00:	9000008e 	adrp	x14, 0x140013000
   140003a04:	910dc1ce 	add	x14, x14, #0x370
   140003a08:	f100127f 	cmp	x19, #0x4
   140003a0c:	a90337f5 	stp	x21, x13, [sp, #48]
   140003a10:	54003f28 	b.hi	0x1400041f4  // b.pmore
   140003a14:	14000221 	b	0x140004298
   140003a18:	9000008e 	adrp	x14, 0x140013000
   140003a1c:	9107e1ce 	add	x14, x14, #0x1f8
   140003a20:	f100127f 	cmp	x19, #0x4
   140003a24:	a90337f5 	stp	x21, x13, [sp, #48]
   140003a28:	54003e68 	b.hi	0x1400041f4  // b.pmore
   140003a2c:	1400021b 	b	0x140004298
   140003a30:	9000008e 	adrp	x14, 0x140013000
   140003a34:	9102e1ce 	add	x14, x14, #0xb8
   140003a38:	f100127f 	cmp	x19, #0x4
   140003a3c:	a90337f5 	stp	x21, x13, [sp, #48]
   140003a40:	54003da8 	b.hi	0x1400041f4  // b.pmore
   140003a44:	14000215 	b	0x140004298
   140003a48:	f000006e 	adrp	x14, 0x140012000
   140003a4c:	913e21ce 	add	x14, x14, #0xf88
   140003a50:	f100127f 	cmp	x19, #0x4
   140003a54:	a90337f5 	stp	x21, x13, [sp, #48]
   140003a58:	54003ce8 	b.hi	0x1400041f4  // b.pmore
   140003a5c:	1400020f 	b	0x140004298
   140003a60:	f000006e 	adrp	x14, 0x140012000
   140003a64:	913a21ce 	add	x14, x14, #0xe88
   140003a68:	f100127f 	cmp	x19, #0x4
   140003a6c:	a90337f5 	stp	x21, x13, [sp, #48]
   140003a70:	54003c28 	b.hi	0x1400041f4  // b.pmore
   140003a74:	14000209 	b	0x140004298
   140003a78:	f000006e 	adrp	x14, 0x140012000
   140003a7c:	9135c1ce 	add	x14, x14, #0xd70
   140003a80:	f100127f 	cmp	x19, #0x4
   140003a84:	a90337f5 	stp	x21, x13, [sp, #48]
   140003a88:	54003b68 	b.hi	0x1400041f4  // b.pmore
   140003a8c:	14000203 	b	0x140004298
   140003a90:	f000006e 	adrp	x14, 0x140012000
   140003a94:	913161ce 	add	x14, x14, #0xc58
   140003a98:	f100127f 	cmp	x19, #0x4
   140003a9c:	a90337f5 	stp	x21, x13, [sp, #48]
   140003aa0:	54003aa8 	b.hi	0x1400041f4  // b.pmore
   140003aa4:	140001fd 	b	0x140004298
   140003aa8:	f000006e 	adrp	x14, 0x140012000
   140003aac:	912c81ce 	add	x14, x14, #0xb20
   140003ab0:	f100127f 	cmp	x19, #0x4
   140003ab4:	a90337f5 	stp	x21, x13, [sp, #48]
   140003ab8:	540039e8 	b.hi	0x1400041f4  // b.pmore
   140003abc:	140001f7 	b	0x140004298
   140003ac0:	f000006e 	adrp	x14, 0x140012000
   140003ac4:	9126c1ce 	add	x14, x14, #0x9b0
   140003ac8:	f100127f 	cmp	x19, #0x4
   140003acc:	a90337f5 	stp	x21, x13, [sp, #48]
   140003ad0:	54003928 	b.hi	0x1400041f4  // b.pmore
   140003ad4:	140001f1 	b	0x140004298
   140003ad8:	f000006e 	adrp	x14, 0x140012000
   140003adc:	912201ce 	add	x14, x14, #0x880
   140003ae0:	f100127f 	cmp	x19, #0x4
   140003ae4:	a90337f5 	stp	x21, x13, [sp, #48]
   140003ae8:	54003868 	b.hi	0x1400041f4  // b.pmore
   140003aec:	140001eb 	b	0x140004298
   140003af0:	f000006e 	adrp	x14, 0x140012000
   140003af4:	911c61ce 	add	x14, x14, #0x718
   140003af8:	f100127f 	cmp	x19, #0x4
   140003afc:	a90337f5 	stp	x21, x13, [sp, #48]
   140003b00:	540037a8 	b.hi	0x1400041f4  // b.pmore
   140003b04:	140001e5 	b	0x140004298
   140003b08:	f000006e 	adrp	x14, 0x140012000
   140003b0c:	9116a1ce 	add	x14, x14, #0x5a8
   140003b10:	f100127f 	cmp	x19, #0x4
   140003b14:	a90337f5 	stp	x21, x13, [sp, #48]
   140003b18:	540036e8 	b.hi	0x1400041f4  // b.pmore
   140003b1c:	140001df 	b	0x140004298
   140003b20:	f000006e 	adrp	x14, 0x140012000
   140003b24:	911121ce 	add	x14, x14, #0x448
   140003b28:	f100127f 	cmp	x19, #0x4
   140003b2c:	a90337f5 	stp	x21, x13, [sp, #48]
   140003b30:	54003628 	b.hi	0x1400041f4  // b.pmore
   140003b34:	140001d9 	b	0x140004298
   140003b38:	f000006e 	adrp	x14, 0x140012000
   140003b3c:	910b81ce 	add	x14, x14, #0x2e0
   140003b40:	f100127f 	cmp	x19, #0x4
   140003b44:	a90337f5 	stp	x21, x13, [sp, #48]
   140003b48:	54003568 	b.hi	0x1400041f4  // b.pmore
   140003b4c:	140001d3 	b	0x140004298
   140003b50:	f000006e 	adrp	x14, 0x140012000
   140003b54:	9105c1ce 	add	x14, x14, #0x170
   140003b58:	f100127f 	cmp	x19, #0x4
   140003b5c:	a90337f5 	stp	x21, x13, [sp, #48]
   140003b60:	540034a8 	b.hi	0x1400041f4  // b.pmore
   140003b64:	140001cd 	b	0x140004298
   140003b68:	f000006e 	adrp	x14, 0x140012000
   140003b6c:	910041ce 	add	x14, x14, #0x10
   140003b70:	f100127f 	cmp	x19, #0x4
   140003b74:	a90337f5 	stp	x21, x13, [sp, #48]
   140003b78:	540033e8 	b.hi	0x1400041f4  // b.pmore
   140003b7c:	140001c7 	b	0x140004298
   140003b80:	d000006e 	adrp	x14, 0x140011000
   140003b84:	913a81ce 	add	x14, x14, #0xea0
   140003b88:	f100127f 	cmp	x19, #0x4
   140003b8c:	a90337f5 	stp	x21, x13, [sp, #48]
   140003b90:	54003328 	b.hi	0x1400041f4  // b.pmore
   140003b94:	140001c1 	b	0x140004298
   140003b98:	d000006e 	adrp	x14, 0x140011000
   140003b9c:	9134c1ce 	add	x14, x14, #0xd30
   140003ba0:	f100127f 	cmp	x19, #0x4
   140003ba4:	a90337f5 	stp	x21, x13, [sp, #48]
   140003ba8:	54003268 	b.hi	0x1400041f4  // b.pmore
   140003bac:	140001bb 	b	0x140004298
   140003bb0:	d000006e 	adrp	x14, 0x140011000
   140003bb4:	912fe1ce 	add	x14, x14, #0xbf8
   140003bb8:	f100127f 	cmp	x19, #0x4
   140003bbc:	a90337f5 	stp	x21, x13, [sp, #48]
   140003bc0:	540031a8 	b.hi	0x1400041f4  // b.pmore
   140003bc4:	140001b5 	b	0x140004298
   140003bc8:	d000006e 	adrp	x14, 0x140011000
   140003bcc:	912ae1ce 	add	x14, x14, #0xab8
   140003bd0:	f100127f 	cmp	x19, #0x4
   140003bd4:	a90337f5 	stp	x21, x13, [sp, #48]
   140003bd8:	540030e8 	b.hi	0x1400041f4  // b.pmore
   140003bdc:	140001af 	b	0x140004298
   140003be0:	d000006e 	adrp	x14, 0x140011000
   140003be4:	9125c1ce 	add	x14, x14, #0x970
   140003be8:	f100127f 	cmp	x19, #0x4
   140003bec:	a90337f5 	stp	x21, x13, [sp, #48]
   140003bf0:	54003028 	b.hi	0x1400041f4  // b.pmore
   140003bf4:	140001a9 	b	0x140004298
   140003bf8:	d000006e 	adrp	x14, 0x140011000
   140003bfc:	912121ce 	add	x14, x14, #0x848
   140003c00:	f100127f 	cmp	x19, #0x4
   140003c04:	a90337f5 	stp	x21, x13, [sp, #48]
   140003c08:	54002f68 	b.hi	0x1400041f4  // b.pmore
   140003c0c:	140001a3 	b	0x140004298
   140003c10:	d000006e 	adrp	x14, 0x140011000
   140003c14:	911c01ce 	add	x14, x14, #0x700
   140003c18:	f100127f 	cmp	x19, #0x4
   140003c1c:	a90337f5 	stp	x21, x13, [sp, #48]
   140003c20:	54002ea8 	b.hi	0x1400041f4  // b.pmore
   140003c24:	1400019d 	b	0x140004298
   140003c28:	d000006e 	adrp	x14, 0x140011000
   140003c2c:	911641ce 	add	x14, x14, #0x590
   140003c30:	f100127f 	cmp	x19, #0x4
   140003c34:	a90337f5 	stp	x21, x13, [sp, #48]
   140003c38:	54002de8 	b.hi	0x1400041f4  // b.pmore
   140003c3c:	14000197 	b	0x140004298
   140003c40:	d000006e 	adrp	x14, 0x140011000
   140003c44:	911081ce 	add	x14, x14, #0x420
   140003c48:	f100127f 	cmp	x19, #0x4
   140003c4c:	a90337f5 	stp	x21, x13, [sp, #48]
   140003c50:	54002d28 	b.hi	0x1400041f4  // b.pmore
   140003c54:	14000191 	b	0x140004298
   140003c58:	d000006e 	adrp	x14, 0x140011000
   140003c5c:	910ae1ce 	add	x14, x14, #0x2b8
   140003c60:	f100127f 	cmp	x19, #0x4
   140003c64:	a90337f5 	stp	x21, x13, [sp, #48]
   140003c68:	54002c68 	b.hi	0x1400041f4  // b.pmore
   140003c6c:	1400018b 	b	0x140004298
   140003c70:	d000006e 	adrp	x14, 0x140011000
   140003c74:	910561ce 	add	x14, x14, #0x158
   140003c78:	f100127f 	cmp	x19, #0x4
   140003c7c:	a90337f5 	stp	x21, x13, [sp, #48]
   140003c80:	54002ba8 	b.hi	0x1400041f4  // b.pmore
   140003c84:	14000185 	b	0x140004298
   140003c88:	b000006e 	adrp	x14, 0x140010000
   140003c8c:	913fa1ce 	add	x14, x14, #0xfe8
   140003c90:	f100127f 	cmp	x19, #0x4
   140003c94:	a90337f5 	stp	x21, x13, [sp, #48]
   140003c98:	54002ae8 	b.hi	0x1400041f4  // b.pmore
   140003c9c:	1400017f 	b	0x140004298
   140003ca0:	b000006e 	adrp	x14, 0x140010000
   140003ca4:	913a21ce 	add	x14, x14, #0xe88
   140003ca8:	f100127f 	cmp	x19, #0x4
   140003cac:	a90337f5 	stp	x21, x13, [sp, #48]
   140003cb0:	54002a28 	b.hi	0x1400041f4  // b.pmore
   140003cb4:	14000179 	b	0x140004298
   140003cb8:	b000006e 	adrp	x14, 0x140010000
   140003cbc:	913581ce 	add	x14, x14, #0xd60
   140003cc0:	f100127f 	cmp	x19, #0x4
   140003cc4:	a90337f5 	stp	x21, x13, [sp, #48]
   140003cc8:	54002968 	b.hi	0x1400041f4  // b.pmore
   140003ccc:	14000173 	b	0x140004298
   140003cd0:	b000006e 	adrp	x14, 0x140010000
   140003cd4:	9130e1ce 	add	x14, x14, #0xc38
   140003cd8:	f100127f 	cmp	x19, #0x4
   140003cdc:	a90337f5 	stp	x21, x13, [sp, #48]
   140003ce0:	540028a8 	b.hi	0x1400041f4  // b.pmore
   140003ce4:	1400016d 	b	0x140004298
   140003ce8:	b000006e 	adrp	x14, 0x140010000
   140003cec:	912b21ce 	add	x14, x14, #0xac8
   140003cf0:	f100127f 	cmp	x19, #0x4
   140003cf4:	a90337f5 	stp	x21, x13, [sp, #48]
   140003cf8:	540027e8 	b.hi	0x1400041f4  // b.pmore
   140003cfc:	14000167 	b	0x140004298
   140003d00:	b000006e 	adrp	x14, 0x140010000
   140003d04:	9126c1ce 	add	x14, x14, #0x9b0
   140003d08:	f100127f 	cmp	x19, #0x4
   140003d0c:	a90337f5 	stp	x21, x13, [sp, #48]
   140003d10:	54002728 	b.hi	0x1400041f4  // b.pmore
   140003d14:	14000161 	b	0x140004298
   140003d18:	b000006e 	adrp	x14, 0x140010000
   140003d1c:	912201ce 	add	x14, x14, #0x880
   140003d20:	f100127f 	cmp	x19, #0x4
   140003d24:	a90337f5 	stp	x21, x13, [sp, #48]
   140003d28:	54002668 	b.hi	0x1400041f4  // b.pmore
   140003d2c:	1400015b 	b	0x140004298
   140003d30:	b000006e 	adrp	x14, 0x140010000
   140003d34:	911d01ce 	add	x14, x14, #0x740
   140003d38:	f100127f 	cmp	x19, #0x4
   140003d3c:	a90337f5 	stp	x21, x13, [sp, #48]
   140003d40:	540025a8 	b.hi	0x1400041f4  // b.pmore
   140003d44:	14000155 	b	0x140004298
   140003d48:	b000006e 	adrp	x14, 0x140010000
   140003d4c:	911781ce 	add	x14, x14, #0x5e0
   140003d50:	f100127f 	cmp	x19, #0x4
   140003d54:	a90337f5 	stp	x21, x13, [sp, #48]
   140003d58:	540024e8 	b.hi	0x1400041f4  // b.pmore
   140003d5c:	1400014f 	b	0x140004298
   140003d60:	b000006e 	adrp	x14, 0x140010000
   140003d64:	9112e1ce 	add	x14, x14, #0x4b8
   140003d68:	f100127f 	cmp	x19, #0x4
   140003d6c:	a90337f5 	stp	x21, x13, [sp, #48]
   140003d70:	54002428 	b.hi	0x1400041f4  // b.pmore
   140003d74:	14000149 	b	0x140004298
   140003d78:	b000006e 	adrp	x14, 0x140010000
   140003d7c:	910d81ce 	add	x14, x14, #0x360
   140003d80:	f100127f 	cmp	x19, #0x4
   140003d84:	a90337f5 	stp	x21, x13, [sp, #48]
   140003d88:	54002368 	b.hi	0x1400041f4  // b.pmore
   140003d8c:	14000143 	b	0x140004298
   140003d90:	b000006e 	adrp	x14, 0x140010000
   140003d94:	910801ce 	add	x14, x14, #0x200
   140003d98:	f100127f 	cmp	x19, #0x4
   140003d9c:	a90337f5 	stp	x21, x13, [sp, #48]
   140003da0:	540022a8 	b.hi	0x1400041f4  // b.pmore
   140003da4:	1400013d 	b	0x140004298
   140003da8:	b000006e 	adrp	x14, 0x140010000
   140003dac:	910381ce 	add	x14, x14, #0xe0
   140003db0:	f100127f 	cmp	x19, #0x4
   140003db4:	a90337f5 	stp	x21, x13, [sp, #48]
   140003db8:	540021e8 	b.hi	0x1400041f4  // b.pmore
   140003dbc:	14000137 	b	0x140004298
   140003dc0:	9000006e 	adrp	x14, 0x14000f000
   140003dc4:	913e61ce 	add	x14, x14, #0xf98
   140003dc8:	f100127f 	cmp	x19, #0x4
   140003dcc:	a90337f5 	stp	x21, x13, [sp, #48]
   140003dd0:	54002128 	b.hi	0x1400041f4  // b.pmore
   140003dd4:	14000131 	b	0x140004298
   140003dd8:	9000006e 	adrp	x14, 0x14000f000
   140003ddc:	913861ce 	add	x14, x14, #0xe18
   140003de0:	f100127f 	cmp	x19, #0x4
   140003de4:	a90337f5 	stp	x21, x13, [sp, #48]
   140003de8:	54002068 	b.hi	0x1400041f4  // b.pmore
   140003dec:	1400012b 	b	0x140004298
   140003df0:	9000006e 	adrp	x14, 0x14000f000
   140003df4:	9132e1ce 	add	x14, x14, #0xcb8
   140003df8:	f100127f 	cmp	x19, #0x4
   140003dfc:	a90337f5 	stp	x21, x13, [sp, #48]
   140003e00:	54001fa8 	b.hi	0x1400041f4  // b.pmore
   140003e04:	14000125 	b	0x140004298
   140003e08:	9000006e 	adrp	x14, 0x14000f000
   140003e0c:	912d21ce 	add	x14, x14, #0xb48
   140003e10:	f100127f 	cmp	x19, #0x4
   140003e14:	a90337f5 	stp	x21, x13, [sp, #48]
   140003e18:	54001ee8 	b.hi	0x1400041f4  // b.pmore
   140003e1c:	1400011f 	b	0x140004298
   140003e20:	9000006e 	adrp	x14, 0x14000f000
   140003e24:	9128a1ce 	add	x14, x14, #0xa28
   140003e28:	f100127f 	cmp	x19, #0x4
   140003e2c:	a90337f5 	stp	x21, x13, [sp, #48]
   140003e30:	54001e28 	b.hi	0x1400041f4  // b.pmore
   140003e34:	14000119 	b	0x140004298
   140003e38:	9000006e 	adrp	x14, 0x14000f000
   140003e3c:	9123a1ce 	add	x14, x14, #0x8e8
   140003e40:	f100127f 	cmp	x19, #0x4
   140003e44:	a90337f5 	stp	x21, x13, [sp, #48]
   140003e48:	54001d68 	b.hi	0x1400041f4  // b.pmore
   140003e4c:	14000113 	b	0x140004298
   140003e50:	9000006e 	adrp	x14, 0x14000f000
   140003e54:	911e21ce 	add	x14, x14, #0x788
   140003e58:	f100127f 	cmp	x19, #0x4
   140003e5c:	a90337f5 	stp	x21, x13, [sp, #48]
   140003e60:	54001ca8 	b.hi	0x1400041f4  // b.pmore
   140003e64:	1400010d 	b	0x140004298
   140003e68:	9000006e 	adrp	x14, 0x14000f000
   140003e6c:	9118a1ce 	add	x14, x14, #0x628
   140003e70:	f100127f 	cmp	x19, #0x4
   140003e74:	a90337f5 	stp	x21, x13, [sp, #48]
   140003e78:	54001be8 	b.hi	0x1400041f4  // b.pmore
   140003e7c:	14000107 	b	0x140004298
   140003e80:	9000006e 	adrp	x14, 0x14000f000
   140003e84:	911321ce 	add	x14, x14, #0x4c8
   140003e88:	f100127f 	cmp	x19, #0x4
   140003e8c:	a90337f5 	stp	x21, x13, [sp, #48]
   140003e90:	54001b28 	b.hi	0x1400041f4  // b.pmore
   140003e94:	14000101 	b	0x140004298
   140003e98:	9000006e 	adrp	x14, 0x14000f000
   140003e9c:	910e01ce 	add	x14, x14, #0x380
   140003ea0:	f100127f 	cmp	x19, #0x4
   140003ea4:	a90337f5 	stp	x21, x13, [sp, #48]
   140003ea8:	54001a68 	b.hi	0x1400041f4  // b.pmore
   140003eac:	140000fb 	b	0x140004298
   140003eb0:	9000006e 	adrp	x14, 0x14000f000
   140003eb4:	910881ce 	add	x14, x14, #0x220
   140003eb8:	f100127f 	cmp	x19, #0x4
   140003ebc:	a90337f5 	stp	x21, x13, [sp, #48]
   140003ec0:	540019a8 	b.hi	0x1400041f4  // b.pmore
   140003ec4:	140000f5 	b	0x140004298
   140003ec8:	9000006e 	adrp	x14, 0x14000f000
   140003ecc:	9103c1ce 	add	x14, x14, #0xf0
   140003ed0:	f100127f 	cmp	x19, #0x4
   140003ed4:	a90337f5 	stp	x21, x13, [sp, #48]
   140003ed8:	540018e8 	b.hi	0x1400041f4  // b.pmore
   140003edc:	140000ef 	b	0x140004298
   140003ee0:	f000004e 	adrp	x14, 0x14000e000
   140003ee4:	913e41ce 	add	x14, x14, #0xf90
   140003ee8:	f100127f 	cmp	x19, #0x4
   140003eec:	a90337f5 	stp	x21, x13, [sp, #48]
   140003ef0:	54001828 	b.hi	0x1400041f4  // b.pmore
   140003ef4:	140000e9 	b	0x140004298
   140003ef8:	f000004e 	adrp	x14, 0x14000e000
   140003efc:	913981ce 	add	x14, x14, #0xe60
   140003f00:	f100127f 	cmp	x19, #0x4
   140003f04:	a90337f5 	stp	x21, x13, [sp, #48]
   140003f08:	54001768 	b.hi	0x1400041f4  // b.pmore
   140003f0c:	140000e3 	b	0x140004298
   140003f10:	f000004e 	adrp	x14, 0x14000e000
   140003f14:	913461ce 	add	x14, x14, #0xd18
   140003f18:	f100127f 	cmp	x19, #0x4
   140003f1c:	a90337f5 	stp	x21, x13, [sp, #48]
   140003f20:	540016a8 	b.hi	0x1400041f4  // b.pmore
   140003f24:	140000dd 	b	0x140004298
   140003f28:	f000004e 	adrp	x14, 0x14000e000
   140003f2c:	913001ce 	add	x14, x14, #0xc00
   140003f30:	f100127f 	cmp	x19, #0x4
   140003f34:	a90337f5 	stp	x21, x13, [sp, #48]
   140003f38:	540015e8 	b.hi	0x1400041f4  // b.pmore
   140003f3c:	140000d7 	b	0x140004298
   140003f40:	f000004e 	adrp	x14, 0x14000e000
   140003f44:	912b81ce 	add	x14, x14, #0xae0
   140003f48:	f100127f 	cmp	x19, #0x4
   140003f4c:	a90337f5 	stp	x21, x13, [sp, #48]
   140003f50:	54001528 	b.hi	0x1400041f4  // b.pmore
   140003f54:	140000d1 	b	0x140004298
   140003f58:	f000004e 	adrp	x14, 0x14000e000
   140003f5c:	912621ce 	add	x14, x14, #0x988
   140003f60:	f100127f 	cmp	x19, #0x4
   140003f64:	a90337f5 	stp	x21, x13, [sp, #48]
   140003f68:	54001468 	b.hi	0x1400041f4  // b.pmore
   140003f6c:	140000cb 	b	0x140004298
   140003f70:	f000004e 	adrp	x14, 0x14000e000
   140003f74:	912081ce 	add	x14, x14, #0x820
   140003f78:	f100127f 	cmp	x19, #0x4
   140003f7c:	a90337f5 	stp	x21, x13, [sp, #48]
   140003f80:	540013a8 	b.hi	0x1400041f4  // b.pmore
   140003f84:	140000c5 	b	0x140004298
   140003f88:	f000004e 	adrp	x14, 0x14000e000
   140003f8c:	911b21ce 	add	x14, x14, #0x6c8
   140003f90:	f100127f 	cmp	x19, #0x4
   140003f94:	a90337f5 	stp	x21, x13, [sp, #48]
   140003f98:	540012e8 	b.hi	0x1400041f4  // b.pmore
   140003f9c:	140000bf 	b	0x140004298
   140003fa0:	f000004e 	adrp	x14, 0x14000e000
   140003fa4:	9115c1ce 	add	x14, x14, #0x570
   140003fa8:	f100127f 	cmp	x19, #0x4
   140003fac:	a90337f5 	stp	x21, x13, [sp, #48]
   140003fb0:	54001228 	b.hi	0x1400041f4  // b.pmore
   140003fb4:	140000b9 	b	0x140004298
   140003fb8:	f000004e 	adrp	x14, 0x14000e000
   140003fbc:	911061ce 	add	x14, x14, #0x418
   140003fc0:	f100127f 	cmp	x19, #0x4
   140003fc4:	a90337f5 	stp	x21, x13, [sp, #48]
   140003fc8:	54001168 	b.hi	0x1400041f4  // b.pmore
   140003fcc:	140000b3 	b	0x140004298
   140003fd0:	f000004e 	adrp	x14, 0x14000e000
   140003fd4:	910b81ce 	add	x14, x14, #0x2e0
   140003fd8:	f100127f 	cmp	x19, #0x4
   140003fdc:	a90337f5 	stp	x21, x13, [sp, #48]
   140003fe0:	540010a8 	b.hi	0x1400041f4  // b.pmore
   140003fe4:	140000ad 	b	0x140004298
   140003fe8:	f000004e 	adrp	x14, 0x14000e000
   140003fec:	9105e1ce 	add	x14, x14, #0x178
   140003ff0:	f100127f 	cmp	x19, #0x4
   140003ff4:	a90337f5 	stp	x21, x13, [sp, #48]
   140003ff8:	54000fe8 	b.hi	0x1400041f4  // b.pmore
   140003ffc:	140000a7 	b	0x140004298
   140004000:	d000004e 	adrp	x14, 0x14000e000
   140004004:	910101ce 	add	x14, x14, #0x40
   140004008:	f100127f 	cmp	x19, #0x4
   14000400c:	a90337f5 	stp	x21, x13, [sp, #48]
   140004010:	54000f28 	b.hi	0x1400041f4  // b.pmore
   140004014:	140000a1 	b	0x140004298
   140004018:	b000004e 	adrp	x14, 0x14000d000
   14000401c:	913be1ce 	add	x14, x14, #0xef8
   140004020:	f100127f 	cmp	x19, #0x4
   140004024:	a90337f5 	stp	x21, x13, [sp, #48]
   140004028:	54000e68 	b.hi	0x1400041f4  // b.pmore
   14000402c:	1400009b 	b	0x140004298
   140004030:	b000004e 	adrp	x14, 0x14000d000
   140004034:	913681ce 	add	x14, x14, #0xda0
   140004038:	f100127f 	cmp	x19, #0x4
   14000403c:	a90337f5 	stp	x21, x13, [sp, #48]
   140004040:	54000da8 	b.hi	0x1400041f4  // b.pmore
   140004044:	14000095 	b	0x140004298
   140004048:	b000004e 	adrp	x14, 0x14000d000
   14000404c:	913101ce 	add	x14, x14, #0xc40
   140004050:	f100127f 	cmp	x19, #0x4
   140004054:	a90337f5 	stp	x21, x13, [sp, #48]
   140004058:	54000ce8 	b.hi	0x1400041f4  // b.pmore
   14000405c:	1400008f 	b	0x140004298
   140004060:	b000004e 	adrp	x14, 0x14000d000
   140004064:	912c41ce 	add	x14, x14, #0xb10
   140004068:	f100127f 	cmp	x19, #0x4
   14000406c:	a90337f5 	stp	x21, x13, [sp, #48]
   140004070:	54000c28 	b.hi	0x1400041f4  // b.pmore
   140004074:	14000089 	b	0x140004298
   140004078:	b000004e 	adrp	x14, 0x14000d000
   14000407c:	912761ce 	add	x14, x14, #0x9d8
   140004080:	f100127f 	cmp	x19, #0x4
   140004084:	a90337f5 	stp	x21, x13, [sp, #48]
   140004088:	54000b68 	b.hi	0x1400041f4  // b.pmore
   14000408c:	14000083 	b	0x140004298
   140004090:	b000004e 	adrp	x14, 0x14000d000
   140004094:	9122a1ce 	add	x14, x14, #0x8a8
   140004098:	f100127f 	cmp	x19, #0x4
   14000409c:	a90337f5 	stp	x21, x13, [sp, #48]
   1400040a0:	54000aa8 	b.hi	0x1400041f4  // b.pmore
   1400040a4:	1400007d 	b	0x140004298
   1400040a8:	b000004e 	adrp	x14, 0x14000d000
   1400040ac:	911d41ce 	add	x14, x14, #0x750
   1400040b0:	f100127f 	cmp	x19, #0x4
   1400040b4:	a90337f5 	stp	x21, x13, [sp, #48]
   1400040b8:	540009e8 	b.hi	0x1400041f4  // b.pmore
   1400040bc:	14000077 	b	0x140004298
   1400040c0:	b000004e 	adrp	x14, 0x14000d000
   1400040c4:	9117a1ce 	add	x14, x14, #0x5e8
   1400040c8:	f100127f 	cmp	x19, #0x4
   1400040cc:	a90337f5 	stp	x21, x13, [sp, #48]
   1400040d0:	54000928 	b.hi	0x1400041f4  // b.pmore
   1400040d4:	14000071 	b	0x140004298
   1400040d8:	b000004e 	adrp	x14, 0x14000d000
   1400040dc:	911201ce 	add	x14, x14, #0x480
   1400040e0:	f100127f 	cmp	x19, #0x4
   1400040e4:	a90337f5 	stp	x21, x13, [sp, #48]
   1400040e8:	54000868 	b.hi	0x1400041f4  // b.pmore
   1400040ec:	1400006b 	b	0x140004298
   1400040f0:	b000004e 	adrp	x14, 0x14000d000
   1400040f4:	910ce1ce 	add	x14, x14, #0x338
   1400040f8:	f100127f 	cmp	x19, #0x4
   1400040fc:	a90337f5 	stp	x21, x13, [sp, #48]
   140004100:	540007a8 	b.hi	0x1400041f4  // b.pmore
   140004104:	14000065 	b	0x140004298
   140004108:	b000004e 	adrp	x14, 0x14000d000
   14000410c:	910781ce 	add	x14, x14, #0x1e0
   140004110:	f100127f 	cmp	x19, #0x4
   140004114:	a90337f5 	stp	x21, x13, [sp, #48]
   140004118:	540006e8 	b.hi	0x1400041f4  // b.pmore
   14000411c:	1400005f 	b	0x140004298
   140004120:	b000004e 	adrp	x14, 0x14000d000
   140004124:	910221ce 	add	x14, x14, #0x88
   140004128:	f100127f 	cmp	x19, #0x4
   14000412c:	a90337f5 	stp	x21, x13, [sp, #48]
   140004130:	54000628 	b.hi	0x1400041f4  // b.pmore
   140004134:	14000059 	b	0x140004298
   140004138:	9000004e 	adrp	x14, 0x14000c000
   14000413c:	913d21ce 	add	x14, x14, #0xf48
   140004140:	f100127f 	cmp	x19, #0x4
   140004144:	a90337f5 	stp	x21, x13, [sp, #48]
   140004148:	54000568 	b.hi	0x1400041f4  // b.pmore
   14000414c:	14000053 	b	0x140004298
   140004150:	9000004e 	adrp	x14, 0x14000c000
   140004154:	913801ce 	add	x14, x14, #0xe00
   140004158:	f100127f 	cmp	x19, #0x4
   14000415c:	a90337f5 	stp	x21, x13, [sp, #48]
   140004160:	540004a8 	b.hi	0x1400041f4  // b.pmore
   140004164:	1400004d 	b	0x140004298
   140004168:	9000004e 	adrp	x14, 0x14000c000
   14000416c:	9132e1ce 	add	x14, x14, #0xcb8
   140004170:	f100127f 	cmp	x19, #0x4
   140004174:	a90337f5 	stp	x21, x13, [sp, #48]
   140004178:	540003e8 	b.hi	0x1400041f4  // b.pmore
   14000417c:	14000047 	b	0x140004298
   140004180:	9000004e 	adrp	x14, 0x14000c000
   140004184:	912dc1ce 	add	x14, x14, #0xb70
   140004188:	f100127f 	cmp	x19, #0x4
   14000418c:	a90337f5 	stp	x21, x13, [sp, #48]
   140004190:	54000328 	b.hi	0x1400041f4  // b.pmore
   140004194:	14000041 	b	0x140004298
   140004198:	9000004e 	adrp	x14, 0x14000c000
   14000419c:	912821ce 	add	x14, x14, #0xa08
   1400041a0:	f100127f 	cmp	x19, #0x4
   1400041a4:	a90337f5 	stp	x21, x13, [sp, #48]
   1400041a8:	54000268 	b.hi	0x1400041f4  // b.pmore
   1400041ac:	1400003b 	b	0x140004298
   1400041b0:	9000004e 	adrp	x14, 0x14000c000
   1400041b4:	912301ce 	add	x14, x14, #0x8c0
   1400041b8:	f100127f 	cmp	x19, #0x4
   1400041bc:	a90337f5 	stp	x21, x13, [sp, #48]
   1400041c0:	540001a8 	b.hi	0x1400041f4  // b.pmore
   1400041c4:	14000035 	b	0x140004298
   1400041c8:	9000004e 	adrp	x14, 0x14000c000
   1400041cc:	911d61ce 	add	x14, x14, #0x758
   1400041d0:	f100127f 	cmp	x19, #0x4
   1400041d4:	a90337f5 	stp	x21, x13, [sp, #48]
   1400041d8:	540000e8 	b.hi	0x1400041f4  // b.pmore
   1400041dc:	1400002f 	b	0x140004298
   1400041e0:	9000004e 	adrp	x14, 0x14000c000
   1400041e4:	9118e1ce 	add	x14, x14, #0x638
   1400041e8:	f100127f 	cmp	x19, #0x4
   1400041ec:	a90337f5 	stp	x21, x13, [sp, #48]
   1400041f0:	54000549 	b.ls	0x140004298  // b.plast
   1400041f4:	f94005c9 	ldr	x9, [x14, #8]
   1400041f8:	b5000cc9 	cbnz	x9, 0x140004390
   1400041fc:	f9400dc9 	ldr	x9, [x14, #24]
   140004200:	b5001049 	cbnz	x9, 0x140004408
   140004204:	f94015c9 	ldr	x9, [x14, #40]
   140004208:	b5000c89 	cbnz	x9, 0x140004398
   14000420c:	f9401dc9 	ldr	x9, [x14, #56]
   140004210:	b5000c89 	cbnz	x9, 0x1400043a0
   140004214:	f94025c9 	ldr	x9, [x14, #72]
   140004218:	b5000c89 	cbnz	x9, 0x1400043a8
   14000421c:	f9402dc9 	ldr	x9, [x14, #88]
   140004220:	b5000c89 	cbnz	x9, 0x1400043b0
   140004224:	f94035c9 	ldr	x9, [x14, #104]
   140004228:	b5000c89 	cbnz	x9, 0x1400043b8
   14000422c:	f9403dc9 	ldr	x9, [x14, #120]
   140004230:	b5000c89 	cbnz	x9, 0x1400043c0
   140004234:	f94045c9 	ldr	x9, [x14, #136]
   140004238:	b5000c89 	cbnz	x9, 0x1400043c8
   14000423c:	f9404dc9 	ldr	x9, [x14, #152]
   140004240:	b5000c89 	cbnz	x9, 0x1400043d0
   140004244:	f94055c9 	ldr	x9, [x14, #168]
   140004248:	b5000c89 	cbnz	x9, 0x1400043d8
   14000424c:	f9405dc9 	ldr	x9, [x14, #184]
   140004250:	b5000c89 	cbnz	x9, 0x1400043e0
   140004254:	f94065c9 	ldr	x9, [x14, #200]
   140004258:	b5000c89 	cbnz	x9, 0x1400043e8
   14000425c:	f9406dc9 	ldr	x9, [x14, #216]
   140004260:	b5000c89 	cbnz	x9, 0x1400043f0
   140004264:	f94075c9 	ldr	x9, [x14, #232]
   140004268:	b5000c89 	cbnz	x9, 0x1400043f8
   14000426c:	f9407dc9 	ldr	x9, [x14, #248]
   140004270:	b5000c89 	cbnz	x9, 0x140004400
   140004274:	a94323f5 	ldp	x21, x8, [sp, #48]
   140004278:	a94103eb 	ldp	x11, x0, [sp, #16]
   14000427c:	91002508 	add	x8, x8, #0x9
   140004280:	17fffd54 	b	0x1400037d0
   140004284:	9000004e 	adrp	x14, 0x14000c000
   140004288:	911341ce 	add	x14, x14, #0x4d0
   14000428c:	f100127f 	cmp	x19, #0x4
   140004290:	a90337f5 	stp	x21, x13, [sp, #48]
   140004294:	54fffb08 	b.hi	0x1400041f4  // b.pmore
   140004298:	f94007e9 	ldr	x9, [sp, #8]
   14000429c:	aa1f03fc 	mov	x28, xzr
   1400042a0:	f9002bee 	str	x14, [sp, #80]
   1400042a4:	9b083528 	madd	x8, x9, x8, x13
   1400042a8:	9b087e77 	mul	x23, x19, x8
   1400042ac:	8b170275 	add	x21, x19, x23
   1400042b0:	14000007 	b	0x1400042cc
   1400042b4:	a944bbe8 	ldp	x8, x14, [sp, #72]
   1400042b8:	9100079c 	add	x28, x28, #0x1
   1400042bc:	f100439f 	cmp	x28, #0x10
   1400042c0:	8b0802f7 	add	x23, x23, x8
   1400042c4:	8b0802b5 	add	x21, x21, x8
   1400042c8:	54fffd60 	b.eq	0x140004274  // b.none
   1400042cc:	8b1c11c8 	add	x8, x14, x28, lsl #4
   1400042d0:	f9400516 	ldr	x22, [x8, #8]
   1400042d4:	b4ffff16 	cbz	x22, 0x1400042b4
   1400042d8:	f940011a 	ldr	x26, [x8]
   1400042dc:	aa1f03fd 	mov	x29, xzr
   1400042e0:	f94023e8 	ldr	x8, [sp, #64]
   1400042e4:	8b17011b 	add	x27, x8, x23
   1400042e8:	38401748 	ldrb	w8, [x26], #1
   1400042ec:	b9405be9 	ldr	w9, [sp, #88]
   1400042f0:	8b1d02f8 	add	x24, x23, x29
   1400042f4:	8b1d02a1 	add	x1, x21, x29
   1400042f8:	39017fff 	strb	wzr, [sp, #95]
   1400042fc:	390177e8 	strb	w8, [sp, #93]
   140004300:	7100013f 	cmp	w9, #0x0
   140004304:	53017d09 	lsr	w9, w8, #1
   140004308:	1a89010a 	csel	w10, w8, w9, eq	// eq = none
   14000430c:	1a880129 	csel	w9, w9, w8, eq	// eq = none
   140004310:	eb18003f 	cmp	x1, x24
   140004314:	390173ea 	strb	w10, [sp, #92]
   140004318:	39017be9 	strb	w9, [sp, #94]
   14000431c:	540009e3 	b.cc	0x140004458  // b.lo, b.ul, b.last
   140004320:	eb14003f 	cmp	x1, x20
   140004324:	54000a88 	b.hi	0x140004474  // b.pmore
   140004328:	8b1d0379 	add	x25, x27, x29
   14000432c:	910173e1 	add	x1, sp, #0x5c
   140004330:	aa1903e0 	mov	x0, x25
   140004334:	aa1303e2 	mov	x2, x19
   140004338:	940015d0 	bl	0x140009a78
   14000433c:	eb14031f 	cmp	x24, x20
   140004340:	540001c2 	b.cs	0x140004378  // b.hs, b.nlast
   140004344:	8b1303bd 	add	x29, x29, x19
   140004348:	f10006d6 	subs	x22, x22, #0x1
   14000434c:	3940033f 	ldrb	wzr, [x25]
   140004350:	54fffcc1 	b.ne	0x1400042e8  // b.any
   140004354:	17ffffd8 	b	0x1400042b4
   140004358:	a94b4ff4 	ldp	x20, x19, [sp, #176]
   14000435c:	a94a57f6 	ldp	x22, x21, [sp, #160]
   140004360:	a9495ff8 	ldp	x24, x23, [sp, #144]
   140004364:	a94867fa 	ldp	x26, x25, [sp, #128]
   140004368:	a9476ffc 	ldp	x28, x27, [sp, #112]
   14000436c:	a94677fe 	ldp	x30, x29, [sp, #96]
   140004370:	910303ff 	add	sp, sp, #0xc0
   140004374:	d65f03c0 	ret
   140004378:	90000082 	adrp	x2, 0x140014000
   14000437c:	91078042 	add	x2, x2, #0x1e0
   140004380:	aa1803e0 	mov	x0, x24
   140004384:	aa1403e1 	mov	x1, x20
   140004388:	9400180c 	bl	0x14000a3b8
   14000438c:	d4200020 	brk	#0x1
   140004390:	f90003ff 	str	xzr, [sp]
   140004394:	1400001d 	b	0x140004408
   140004398:	52800049 	mov	w9, #0x2                   	// #2
   14000439c:	1400001a 	b	0x140004404
   1400043a0:	52800069 	mov	w9, #0x3                   	// #3
   1400043a4:	14000018 	b	0x140004404
   1400043a8:	52800089 	mov	w9, #0x4                   	// #4
   1400043ac:	14000016 	b	0x140004404
   1400043b0:	528000a9 	mov	w9, #0x5                   	// #5
   1400043b4:	14000014 	b	0x140004404
   1400043b8:	528000c9 	mov	w9, #0x6                   	// #6
   1400043bc:	14000012 	b	0x140004404
   1400043c0:	528000e9 	mov	w9, #0x7                   	// #7
   1400043c4:	14000010 	b	0x140004404
   1400043c8:	52800109 	mov	w9, #0x8                   	// #8
   1400043cc:	1400000e 	b	0x140004404
   1400043d0:	52800129 	mov	w9, #0x9                   	// #9
   1400043d4:	1400000c 	b	0x140004404
   1400043d8:	52800149 	mov	w9, #0xa                   	// #10
   1400043dc:	1400000a 	b	0x140004404
   1400043e0:	52800169 	mov	w9, #0xb                   	// #11
   1400043e4:	14000008 	b	0x140004404
   1400043e8:	52800189 	mov	w9, #0xc                   	// #12
   1400043ec:	14000006 	b	0x140004404
   1400043f0:	528001a9 	mov	w9, #0xd                   	// #13
   1400043f4:	14000004 	b	0x140004404
   1400043f8:	528001c9 	mov	w9, #0xe                   	// #14
   1400043fc:	14000002 	b	0x140004404
   140004400:	528001e9 	mov	w9, #0xf                   	// #15
   140004404:	f90003e9 	str	x9, [sp]
   140004408:	f94003ea 	ldr	x10, [sp]
   14000440c:	39017fff 	strb	wzr, [sp, #95]
   140004410:	f9401feb 	ldr	x11, [sp, #56]
   140004414:	d37ced49 	lsl	x9, x10, #4
   140004418:	8b080148 	add	x8, x10, x8
   14000441c:	f94007ea 	ldr	x10, [sp, #8]
   140004420:	f86969c9 	ldr	x9, [x14, x9]
   140004424:	9b0a2d08 	madd	x8, x8, x10, x11
   140004428:	b9405bea 	ldr	w10, [sp, #88]
   14000442c:	39400129 	ldrb	w9, [x9]
   140004430:	9b137d18 	mul	x24, x8, x19
   140004434:	7100015f 	cmp	w10, #0x0
   140004438:	53017d2a 	lsr	w10, w9, #1
   14000443c:	390177e9 	strb	w9, [sp, #93]
   140004440:	1a8a012b 	csel	w11, w9, w10, eq	// eq = none
   140004444:	1a890148 	csel	w8, w10, w9, eq	// eq = none
   140004448:	ab130301 	adds	x1, x24, x19
   14000444c:	390173eb 	strb	w11, [sp, #92]
   140004450:	39017be8 	strb	w8, [sp, #94]
   140004454:	540000c3 	b.cc	0x14000446c  // b.lo, b.ul, b.last
   140004458:	90000082 	adrp	x2, 0x140014000
   14000445c:	9106c042 	add	x2, x2, #0x1b0
   140004460:	aa1803e0 	mov	x0, x24
   140004464:	9400185f 	bl	0x14000a5e0
   140004468:	d4200020 	brk	#0x1
   14000446c:	eb14003f 	cmp	x1, x20
   140004470:	540000e9 	b.ls	0x14000448c  // b.plast
   140004474:	90000082 	adrp	x2, 0x140014000
   140004478:	9106c042 	add	x2, x2, #0x1b0
   14000447c:	aa0103e0 	mov	x0, x1
   140004480:	aa1403e1 	mov	x1, x20
   140004484:	94001855 	bl	0x14000a5d8
   140004488:	d4200020 	brk	#0x1
   14000448c:	90000082 	adrp	x2, 0x140014000
   140004490:	91072042 	add	x2, x2, #0x1c8
   140004494:	aa1303e0 	mov	x0, x19
   140004498:	52800081 	mov	w1, #0x4                   	// #4
   14000449c:	9400184f 	bl	0x14000a5d8
   1400044a0:	d4200020 	brk	#0x1
   1400044a4:	d10703ff 	sub	sp, sp, #0x1c0
   1400044a8:	6f00e400 	movi	v0.2d, #0x0
   1400044ac:	a90083e8 	stp	x8, x0, [sp, #8]
   1400044b0:	f9000fe1 	str	x1, [sp, #24]
   1400044b4:	910283e8 	add	x8, sp, #0xa0
   1400044b8:	910043e0 	add	x0, sp, #0x10
   1400044bc:	910083e1 	add	x1, sp, #0x20
   1400044c0:	52800802 	mov	w2, #0x40                  	// #64
   1400044c4:	a91677fe 	stp	x30, x29, [sp, #352]
   1400044c8:	a9176ffc 	stp	x28, x27, [sp, #368]
   1400044cc:	a91867fa 	stp	x26, x25, [sp, #384]
   1400044d0:	a9195ff8 	stp	x24, x23, [sp, #400]
   1400044d4:	a91a57f6 	stp	x22, x21, [sp, #416]
   1400044d8:	a91b4ff4 	stp	x20, x19, [sp, #432]
   1400044dc:	ad0103e0 	stp	q0, q0, [sp, #32]
   1400044e0:	ad0203e0 	stp	q0, q0, [sp, #64]
   1400044e4:	9400031d 	bl	0x140005158
   1400044e8:	f94053e8 	ldr	x8, [sp, #160]
   1400044ec:	f100091f 	cmp	x8, #0x2
   1400044f0:	54002281 	b.ne	0x140004940  // b.any
   1400044f4:	910083e0 	add	x0, sp, #0x20
   1400044f8:	940005b8 	bl	0x140005bd8
   1400044fc:	6f00e400 	movi	v0.2d, #0x0
   140004500:	aa0003f4 	mov	x20, x0
   140004504:	7940701a 	ldrh	w26, [x0, #56]
   140004508:	f9004bff 	str	xzr, [sp, #144]
   14000450c:	f9401015 	ldr	x21, [x0, #32]
   140004510:	ad0383e0 	stp	q0, q0, [sp, #112]
   140004514:	3d801be0 	str	q0, [sp, #96]
   140004518:	b4000b9a 	cbz	x26, 0x140004688
   14000451c:	f0000099 	adrp	x25, 0x140017000
   140004520:	910183e8 	add	x8, sp, #0x60
   140004524:	910283fb 	add	x27, sp, #0xa0
   140004528:	b27e011c 	orr	x28, x8, #0x4
   14000452c:	b27e037d 	orr	x29, x27, #0x4
   140004530:	52800033 	mov	w19, #0x1                   	// #1
   140004534:	f9400339 	ldr	x25, [x25]
   140004538:	90000096 	adrp	x22, 0x140014000
   14000453c:	911222d6 	add	x22, x22, #0x488
   140004540:	14000004 	b	0x140004550
   140004544:	9100e2b5 	add	x21, x21, #0x38
   140004548:	f100075a 	subs	x26, x26, #0x1
   14000454c:	540009e0 	b.eq	0x140004688  // b.none
   140004550:	910043e0 	add	x0, sp, #0x10
   140004554:	aa1503e1 	mov	x1, x21
   140004558:	9400031a 	bl	0x1400051c0
   14000455c:	b5001560 	cbnz	x0, 0x140004808
   140004560:	910283e8 	add	x8, sp, #0xa0
   140004564:	910043e0 	add	x0, sp, #0x10
   140004568:	910183e1 	add	x1, sp, #0x60
   14000456c:	52800702 	mov	w2, #0x38                  	// #56
   140004570:	940002fa 	bl	0x140005158
   140004574:	f94053e8 	ldr	x8, [sp, #160]
   140004578:	f100091f 	cmp	x8, #0x2
   14000457c:	54001561 	b.ne	0x140004828  // b.any
   140004580:	3cc883e0 	ldur	q0, [sp, #136]
   140004584:	9e660008 	fmov	x8, d0
   140004588:	b4fffde8 	cbz	x8, 0x140004544
   14000458c:	b94063e8 	ldr	w8, [sp, #96]
   140004590:	7100051f 	cmp	w8, #0x1
   140004594:	54fffd81 	b.ne	0x140004544  // b.any
   140004598:	ad400b81 	ldp	q1, q2, [x28]
   14000459c:	b900a3f3 	str	w19, [sp, #160]
   1400045a0:	b9402388 	ldr	w8, [x28, #32]
   1400045a4:	ad000ba1 	stp	q1, q2, [x29]
   1400045a8:	b90023a8 	str	w8, [x29, #32]
   1400045ac:	910283e8 	add	x8, sp, #0xa0
   1400045b0:	3c828100 	stur	q0, [x8, #40]
   1400045b4:	f9400328 	ldr	x8, [x25]
   1400045b8:	f100091f 	cmp	x8, #0x2
   1400045bc:	540001e9 	b.ls	0x1400045f8  // b.plast
   1400045c0:	b0000008 	adrp	x8, 0x140005000
   1400045c4:	91320108 	add	x8, x8, #0xc80
   1400045c8:	910383e0 	add	x0, sp, #0xe0
   1400045cc:	52800061 	mov	w1, #0x3                   	// #3
   1400045d0:	aa1603e2 	mov	x2, x22
   1400045d4:	aa1f03e3 	mov	x3, xzr
   1400045d8:	a91423fb 	stp	x27, x8, [sp, #320]
   1400045dc:	90000088 	adrp	x8, 0x140014000
   1400045e0:	91118108 	add	x8, x8, #0x460
   1400045e4:	f90073ff 	str	xzr, [sp, #224]
   1400045e8:	a90f4fe8 	stp	x8, x19, [sp, #240]
   1400045ec:	910503e8 	add	x8, sp, #0x140
   1400045f0:	a9104fe8 	stp	x8, x19, [sp, #256]
   1400045f4:	940001b8 	bl	0x140004cd4
   1400045f8:	ad4507e0 	ldp	q0, q1, [sp, #160]
   1400045fc:	910383e1 	add	x1, sp, #0xe0
   140004600:	3dc033e2 	ldr	q2, [sp, #192]
   140004604:	ad0707e0 	stp	q0, q1, [sp, #224]
   140004608:	f9406be8 	ldr	x8, [sp, #208]
   14000460c:	f9400fe0 	ldr	x0, [sp, #24]
   140004610:	3d8043e2 	str	q2, [sp, #256]
   140004614:	f9008be8 	str	x8, [sp, #272]
   140004618:	97fff3d5 	bl	0x14000156c
   14000461c:	aa0003f7 	mov	x23, x0
   140004620:	aa0103f8 	mov	x24, x1
   140004624:	f94057e1 	ldr	x1, [sp, #168]
   140004628:	910043e0 	add	x0, sp, #0x10
   14000462c:	940002e5 	bl	0x1400051c0
   140004630:	b5001640 	cbnz	x0, 0x1400048f8
   140004634:	f94063e2 	ldr	x2, [sp, #192]
   140004638:	eb18005f 	cmp	x2, x24
   14000463c:	54001748 	b.hi	0x140004924  // b.pmore
   140004640:	910503e8 	add	x8, sp, #0x140
   140004644:	910043e0 	add	x0, sp, #0x10
   140004648:	aa1703e1 	mov	x1, x23
   14000464c:	940002c3 	bl	0x140005158
   140004650:	f940a3e8 	ldr	x8, [sp, #320]
   140004654:	f100091f 	cmp	x8, #0x2
   140004658:	54fff760 	b.eq	0x140004544  // b.none
   14000465c:	3dc053e0 	ldr	q0, [sp, #320]
   140004660:	90000080 	adrp	x0, 0x140014000
   140004664:	910ad800 	add	x0, x0, #0x2b6
   140004668:	f940abe8 	ldr	x8, [sp, #336]
   14000466c:	90000083 	adrp	x3, 0x140014000
   140004670:	910ba063 	add	x3, x3, #0x2e8
   140004674:	3d803be0 	str	q0, [sp, #224]
   140004678:	90000084 	adrp	x4, 0x140014000
   14000467c:	9113c084 	add	x4, x4, #0x4f0
   140004680:	f9007be8 	str	x8, [sp, #240]
   140004684:	140000a4 	b	0x140004914
   140004688:	79407a97 	ldrh	w23, [x20, #60]
   14000468c:	52800b08 	mov	w8, #0x58                  	// #88
   140004690:	f9400e98 	ldr	x24, [x20, #24]
   140004694:	9b087ef6 	mul	x22, x23, x8
   140004698:	f9400fe8 	ldr	x8, [sp, #24]
   14000469c:	d10006c9 	sub	x9, x22, #0x1
   1400046a0:	91082100 	add	x0, x8, #0x208
   1400046a4:	d34cfd29 	lsr	x9, x9, #12
   1400046a8:	91000535 	add	x21, x9, #0x1
   1400046ac:	940004be 	bl	0x1400059a4
   1400046b0:	aa1f03e1 	mov	x1, xzr
   1400046b4:	52800043 	mov	w3, #0x2                   	// #2
   1400046b8:	aa1503e4 	mov	x4, x21
   1400046bc:	940001f4 	bl	0x140004e8c
   1400046c0:	aa0103f5 	mov	x21, x1
   1400046c4:	b5001540 	cbnz	x0, 0x14000496c
   1400046c8:	aa1503e0 	mov	x0, x21
   1400046cc:	2a1f03e1 	mov	w1, wzr
   1400046d0:	aa1603e2 	mov	x2, x22
   1400046d4:	940014ea 	bl	0x140009a7c
   1400046d8:	6f00e400 	movi	v0.2d, #0x0
   1400046dc:	910043e0 	add	x0, sp, #0x10
   1400046e0:	ad0503e0 	stp	q0, q0, [sp, #160]
   1400046e4:	ad0603e0 	stp	q0, q0, [sp, #192]
   1400046e8:	f9401696 	ldr	x22, [x20, #40]
   1400046ec:	79407e88 	ldrh	w8, [x20, #62]
   1400046f0:	8b081ac1 	add	x1, x22, x8, lsl #6
   1400046f4:	940002b3 	bl	0x1400051c0
   1400046f8:	b50014a0 	cbnz	x0, 0x14000498c
   1400046fc:	910503e8 	add	x8, sp, #0x140
   140004700:	910043e0 	add	x0, sp, #0x10
   140004704:	910283e1 	add	x1, sp, #0xa0
   140004708:	52800802 	mov	w2, #0x40                  	// #64
   14000470c:	94000293 	bl	0x140005158
   140004710:	f940a3e8 	ldr	x8, [sp, #320]
   140004714:	f100091f 	cmp	x8, #0x2
   140004718:	540014a1 	b.ne	0x1400049ac  // b.any
   14000471c:	340005b7 	cbz	w23, 0x1400047d0
   140004720:	52800b08 	mov	w8, #0x58                  	// #88
   140004724:	f9405ff4 	ldr	x20, [sp, #184]
   140004728:	aa1503f9 	mov	x25, x21
   14000472c:	9b0856f3 	madd	x19, x23, x8, x21
   140004730:	910043e0 	add	x0, sp, #0x10
   140004734:	aa1603e1 	mov	x1, x22
   140004738:	940002a2 	bl	0x1400051c0
   14000473c:	b50008c0 	cbnz	x0, 0x140004854
   140004740:	910503e8 	add	x8, sp, #0x140
   140004744:	910043e0 	add	x0, sp, #0x10
   140004748:	910283e1 	add	x1, sp, #0xa0
   14000474c:	52800802 	mov	w2, #0x40                  	// #64
   140004750:	94000282 	bl	0x140005158
   140004754:	f940a3e8 	ldr	x8, [sp, #320]
   140004758:	f100091f 	cmp	x8, #0x2
   14000475c:	540008c1 	b.ne	0x140004874  // b.any
   140004760:	b940a3e8 	ldr	w8, [sp, #160]
   140004764:	910043e0 	add	x0, sp, #0x10
   140004768:	a94af3fa 	ldp	x26, x28, [sp, #168]
   14000476c:	6f00e400 	movi	v0.2d, #0x0
   140004770:	8b080281 	add	x1, x20, x8
   140004774:	f94063fb 	ldr	x27, [sp, #192]
   140004778:	ad0703e0 	stp	q0, q0, [sp, #224]
   14000477c:	ad0803e0 	stp	q0, q0, [sp, #256]
   140004780:	94000290 	bl	0x1400051c0
   140004784:	b50008e0 	cbnz	x0, 0x1400048a0
   140004788:	9104a3e8 	add	x8, sp, #0x128
   14000478c:	910043e0 	add	x0, sp, #0x10
   140004790:	910383e1 	add	x1, sp, #0xe0
   140004794:	52800802 	mov	w2, #0x40                  	// #64
   140004798:	94000270 	bl	0x140005158
   14000479c:	f94097e8 	ldr	x8, [sp, #296]
   1400047a0:	f100091f 	cmp	x8, #0x2
   1400047a4:	54000901 	b.ne	0x1400048c4  // b.any
   1400047a8:	ad4803e1 	ldp	q1, q0, [sp, #256]
   1400047ac:	a9046f3c 	stp	x28, x27, [x25, #64]
   1400047b0:	910102d6 	add	x22, x22, #0x40
   1400047b4:	f9002b3a 	str	x26, [x25, #80]
   1400047b8:	ad470be3 	ldp	q3, q2, [sp, #224]
   1400047bc:	ad010321 	stp	q1, q0, [x25, #32]
   1400047c0:	ad000b23 	stp	q3, q2, [x25]
   1400047c4:	91016339 	add	x25, x25, #0x58
   1400047c8:	eb13033f 	cmp	x25, x19
   1400047cc:	54fffb21 	b.ne	0x140004730  // b.any
   1400047d0:	9240bf08 	and	x8, x24, #0xffffffffffff
   1400047d4:	f94007e9 	ldr	x9, [sp, #8]
   1400047d8:	910043e0 	add	x0, sp, #0x10
   1400047dc:	a9005528 	stp	x8, x21, [x9]
   1400047e0:	f9000937 	str	x23, [x9, #16]
   1400047e4:	9400038c 	bl	0x140005614
   1400047e8:	a95b4ff4 	ldp	x20, x19, [sp, #432]
   1400047ec:	a95a57f6 	ldp	x22, x21, [sp, #416]
   1400047f0:	a9595ff8 	ldp	x24, x23, [sp, #400]
   1400047f4:	a95867fa 	ldp	x26, x25, [sp, #384]
   1400047f8:	a9576ffc 	ldp	x28, x27, [sp, #368]
   1400047fc:	a95677fe 	ldp	x30, x29, [sp, #352]
   140004800:	910703ff 	add	sp, sp, #0x1c0
   140004804:	d65f03c0 	ret
   140004808:	f90073e1 	str	x1, [sp, #224]
   14000480c:	90000080 	adrp	x0, 0x140014000
   140004810:	910ad800 	add	x0, x0, #0x2b6
   140004814:	90000083 	adrp	x3, 0x140014000
   140004818:	910da063 	add	x3, x3, #0x368
   14000481c:	90000084 	adrp	x4, 0x140014000
   140004820:	910e2084 	add	x4, x4, #0x388
   140004824:	1400003c 	b	0x140004914
   140004828:	3dc02be0 	ldr	q0, [sp, #160]
   14000482c:	90000080 	adrp	x0, 0x140014000
   140004830:	910ad800 	add	x0, x0, #0x2b6
   140004834:	f9405be8 	ldr	x8, [sp, #176]
   140004838:	90000083 	adrp	x3, 0x140014000
   14000483c:	910ba063 	add	x3, x3, #0x2e8
   140004840:	3d803be0 	str	q0, [sp, #224]
   140004844:	90000084 	adrp	x4, 0x140014000
   140004848:	910e8084 	add	x4, x4, #0x3a0
   14000484c:	f9007be8 	str	x8, [sp, #240]
   140004850:	14000031 	b	0x140004914
   140004854:	f90073e1 	str	x1, [sp, #224]
   140004858:	90000080 	adrp	x0, 0x140014000
   14000485c:	910ad800 	add	x0, x0, #0x2b6
   140004860:	90000083 	adrp	x3, 0x140014000
   140004864:	910da063 	add	x3, x3, #0x368
   140004868:	90000084 	adrp	x4, 0x140014000
   14000486c:	910fa084 	add	x4, x4, #0x3e8
   140004870:	14000029 	b	0x140004914
   140004874:	3dc053e0 	ldr	q0, [sp, #320]
   140004878:	90000080 	adrp	x0, 0x140014000
   14000487c:	910ad800 	add	x0, x0, #0x2b6
   140004880:	f940abe8 	ldr	x8, [sp, #336]
   140004884:	90000083 	adrp	x3, 0x140014000
   140004888:	910ba063 	add	x3, x3, #0x2e8
   14000488c:	3d803be0 	str	q0, [sp, #224]
   140004890:	90000084 	adrp	x4, 0x140014000
   140004894:	91100084 	add	x4, x4, #0x400
   140004898:	f9007be8 	str	x8, [sp, #240]
   14000489c:	1400001e 	b	0x140004914
   1400048a0:	f900a3e1 	str	x1, [sp, #320]
   1400048a4:	90000080 	adrp	x0, 0x140014000
   1400048a8:	910ad800 	add	x0, x0, #0x2b6
   1400048ac:	90000083 	adrp	x3, 0x140014000
   1400048b0:	910da063 	add	x3, x3, #0x368
   1400048b4:	90000084 	adrp	x4, 0x140014000
   1400048b8:	91106084 	add	x4, x4, #0x418
   1400048bc:	910503e2 	add	x2, sp, #0x140
   1400048c0:	14000016 	b	0x140004918
   1400048c4:	910283e8 	add	x8, sp, #0xa0
   1400048c8:	90000080 	adrp	x0, 0x140014000
   1400048cc:	910ad800 	add	x0, x0, #0x2b6
   1400048d0:	90000083 	adrp	x3, 0x140014000
   1400048d4:	910ba063 	add	x3, x3, #0x2e8
   1400048d8:	90000084 	adrp	x4, 0x140014000
   1400048dc:	9110c084 	add	x4, x4, #0x430
   1400048e0:	3cc88100 	ldur	q0, [x8, #136]
   1400048e4:	f9409fe8 	ldr	x8, [sp, #312]
   1400048e8:	910503e2 	add	x2, sp, #0x140
   1400048ec:	3d8053e0 	str	q0, [sp, #320]
   1400048f0:	f900abe8 	str	x8, [sp, #336]
   1400048f4:	14000009 	b	0x140004918
   1400048f8:	f90073e1 	str	x1, [sp, #224]
   1400048fc:	90000080 	adrp	x0, 0x140014000
   140004900:	910ad800 	add	x0, x0, #0x2b6
   140004904:	90000083 	adrp	x3, 0x140014000
   140004908:	910da063 	add	x3, x3, #0x368
   14000490c:	90000084 	adrp	x4, 0x140014000
   140004910:	91130084 	add	x4, x4, #0x4c0
   140004914:	910383e2 	add	x2, sp, #0xe0
   140004918:	52800561 	mov	w1, #0x2b                  	// #43
   14000491c:	94001717 	bl	0x14000a578
   140004920:	d4200020 	brk	#0x1
   140004924:	90000088 	adrp	x8, 0x140014000
   140004928:	91136108 	add	x8, x8, #0x4d8
   14000492c:	aa0203e0 	mov	x0, x2
   140004930:	aa1803e1 	mov	x1, x24
   140004934:	aa0803e2 	mov	x2, x8
   140004938:	94001728 	bl	0x14000a5d8
   14000493c:	d4200020 	brk	#0x1
   140004940:	3dc02be0 	ldr	q0, [sp, #160]
   140004944:	90000080 	adrp	x0, 0x140014000
   140004948:	910ad800 	add	x0, x0, #0x2b6
   14000494c:	f9405be8 	ldr	x8, [sp, #176]
   140004950:	90000083 	adrp	x3, 0x140014000
   140004954:	910ba063 	add	x3, x3, #0x2e8
   140004958:	3d803be0 	str	q0, [sp, #224]
   14000495c:	90000084 	adrp	x4, 0x140014000
   140004960:	910d4084 	add	x4, x4, #0x350
   140004964:	f9007be8 	str	x8, [sp, #240]
   140004968:	17ffffeb 	b	0x140004914
   14000496c:	f0000020 	adrp	x0, 0x14000b000
   140004970:	91000000 	add	x0, x0, #0x0
   140004974:	f0000023 	adrp	x3, 0x14000b000
   140004978:	910c6063 	add	x3, x3, #0x318
   14000497c:	f0000024 	adrp	x4, 0x14000b000
   140004980:	910e0084 	add	x4, x4, #0x380
   140004984:	f90073f5 	str	x21, [sp, #224]
   140004988:	17ffffe3 	b	0x140004914
   14000498c:	f90073e1 	str	x1, [sp, #224]
   140004990:	90000080 	adrp	x0, 0x140014000
   140004994:	910ad800 	add	x0, x0, #0x2b6
   140004998:	90000083 	adrp	x3, 0x140014000
   14000499c:	910da063 	add	x3, x3, #0x368
   1400049a0:	90000084 	adrp	x4, 0x140014000
   1400049a4:	910ee084 	add	x4, x4, #0x3b8
   1400049a8:	17ffffdb 	b	0x140004914
   1400049ac:	3dc053e0 	ldr	q0, [sp, #320]
   1400049b0:	90000080 	adrp	x0, 0x140014000
   1400049b4:	910ad800 	add	x0, x0, #0x2b6
   1400049b8:	f940abe8 	ldr	x8, [sp, #336]
   1400049bc:	90000083 	adrp	x3, 0x140014000
   1400049c0:	910ba063 	add	x3, x3, #0x2e8
   1400049c4:	3d803be0 	str	q0, [sp, #224]
   1400049c8:	90000084 	adrp	x4, 0x140014000
   1400049cc:	910f4084 	add	x4, x4, #0x3d0
   1400049d0:	f9007be8 	str	x8, [sp, #240]
   1400049d4:	17ffffd0 	b	0x140004914
   1400049d8:	d10103ff 	sub	sp, sp, #0x40
   1400049dc:	a941a002 	ldp	x2, x8, [x0, #24]
   1400049e0:	90000081 	adrp	x1, 0x140014000
   1400049e4:	9114a021 	add	x1, x1, #0x528
   1400049e8:	f9001bfe 	str	x30, [sp, #48]
   1400049ec:	f9409109 	ldr	x9, [x8, #288]
   1400049f0:	a940a003 	ldp	x3, x8, [x0, #8]
   1400049f4:	aa0803e0 	mov	x0, x8
   1400049f8:	d63f0120 	blr	x9
   1400049fc:	f9001fe0 	str	x0, [sp, #56]
   140004a00:	b5000080 	cbnz	x0, 0x140004a10
   140004a04:	f9401bfe 	ldr	x30, [sp, #48]
   140004a08:	910103ff 	add	sp, sp, #0x40
   140004a0c:	d65f03c0 	ret
   140004a10:	90000082 	adrp	x2, 0x140014000
   140004a14:	91152042 	add	x2, x2, #0x548
   140004a18:	90000084 	adrp	x4, 0x140014000
   140004a1c:	9116a084 	add	x4, x4, #0x5a8
   140004a20:	9100e3e1 	add	x1, sp, #0x38
   140004a24:	910003e3 	mov	x3, sp
   140004a28:	2a1f03e0 	mov	w0, wzr
   140004a2c:	f9000bff 	str	xzr, [sp, #16]
   140004a30:	9400161a 	bl	0x14000a298
   140004a34:	d4200020 	brk	#0x1
   140004a38:	d10103ff 	sub	sp, sp, #0x40
   140004a3c:	a9422002 	ldp	x2, x8, [x0, #32]
   140004a40:	90000081 	adrp	x1, 0x140014000
   140004a44:	91142021 	add	x1, x1, #0x508
   140004a48:	f9001bfe 	str	x30, [sp, #48]
   140004a4c:	f9409109 	ldr	x9, [x8, #288]
   140004a50:	a9412003 	ldp	x3, x8, [x0, #16]
   140004a54:	aa0803e0 	mov	x0, x8
   140004a58:	d63f0120 	blr	x9
   140004a5c:	f9001fe0 	str	x0, [sp, #56]
   140004a60:	b5000080 	cbnz	x0, 0x140004a70
   140004a64:	f9401bfe 	ldr	x30, [sp, #48]
   140004a68:	910103ff 	add	sp, sp, #0x40
   140004a6c:	d65f03c0 	ret
   140004a70:	90000082 	adrp	x2, 0x140014000
   140004a74:	91152042 	add	x2, x2, #0x548
   140004a78:	90000084 	adrp	x4, 0x140014000
   140004a7c:	9116a084 	add	x4, x4, #0x5a8
   140004a80:	9100e3e1 	add	x1, sp, #0x38
   140004a84:	910003e3 	mov	x3, sp
   140004a88:	2a1f03e0 	mov	w0, wzr
   140004a8c:	f9000bff 	str	xzr, [sp, #16]
   140004a90:	94001602 	bl	0x14000a298
   140004a94:	d4200020 	brk	#0x1
   140004a98:	d10283ff 	sub	sp, sp, #0xa0
   140004a9c:	a90857f6 	stp	x22, x21, [sp, #128]
   140004aa0:	91016016 	add	x22, x0, #0x58
   140004aa4:	f90033fe 	str	x30, [sp, #96]
   140004aa8:	a9075ff8 	stp	x24, x23, [sp, #112]
   140004aac:	f9400837 	ldr	x23, [x1, #16]
   140004ab0:	a9094ff4 	stp	x20, x19, [sp, #144]
   140004ab4:	aa0003f3 	mov	x19, x0
   140004ab8:	a9405434 	ldp	x20, x21, [x1]
   140004abc:	08dffec0 	ldarb	w0, [x22]
   140004ac0:	97fff150 	bl	0x140001000
   140004ac4:	72001c08 	ands	w8, w0, #0xff
   140004ac8:	54000180 	b.eq	0x140004af8  // b.none
   140004acc:	7100051f 	cmp	w8, #0x1
   140004ad0:	540002e0 	b.eq	0x140004b2c  // b.none
   140004ad4:	7100091f 	cmp	w8, #0x2
   140004ad8:	54000800 	b.eq	0x140004bd8  // b.none
   140004adc:	90000080 	adrp	x0, 0x140014000
   140004ae0:	91170000 	add	x0, x0, #0x5c0
   140004ae4:	90000082 	adrp	x2, 0x140014000
   140004ae8:	91188042 	add	x2, x2, #0x620
   140004aec:	528001a1 	mov	w1, #0xd                   	// #13
   140004af0:	94001625 	bl	0x14000a384
   140004af4:	d4200020 	brk	#0x1
   140004af8:	52800028 	mov	w8, #0x1                   	// #1
   140004afc:	085ffec0 	ldaxrb	w0, [x22]
   140004b00:	35000320 	cbnz	w0, 0x140004b64
   140004b04:	08097ec8 	stxrb	w9, w8, [x22]
   140004b08:	35ffffa9 	cbnz	w9, 0x140004afc
   140004b0c:	52800038 	mov	w24, #0x1                   	// #1
   140004b10:	97fff13c 	bl	0x140001000
   140004b14:	37000318 	tbnz	w24, #0, 0x140004b74
   140004b18:	12001c08 	and	w8, w0, #0xff
   140004b1c:	7100051f 	cmp	w8, #0x1
   140004b20:	54fffda1 	b.ne	0x140004ad4  // b.any
   140004b24:	14000002 	b	0x140004b2c
   140004b28:	d5033fdf 	isb
   140004b2c:	08dffec0 	ldarb	w0, [x22]
   140004b30:	97fff134 	bl	0x140001000
   140004b34:	12001c08 	and	w8, w0, #0xff
   140004b38:	7100051f 	cmp	w8, #0x1
   140004b3c:	54ffff60 	b.eq	0x140004b28  // b.none
   140004b40:	7100091f 	cmp	w8, #0x2
   140004b44:	540004a0 	b.eq	0x140004bd8  // b.none
   140004b48:	90000080 	adrp	x0, 0x140014000
   140004b4c:	9118e000 	add	x0, x0, #0x638
   140004b50:	90000082 	adrp	x2, 0x140014000
   140004b54:	91198042 	add	x2, x2, #0x660
   140004b58:	528004c1 	mov	w1, #0x26                  	// #38
   140004b5c:	9400160a 	bl	0x14000a384
   140004b60:	d4200020 	brk	#0x1
   140004b64:	2a1f03f8 	mov	w24, wzr
   140004b68:	d5033f5f 	clrex
   140004b6c:	97fff125 	bl	0x140001000
   140004b70:	3607fd58 	tbz	w24, #0, 0x140004b18
   140004b74:	3cc082e0 	ldur	q0, [x23, #8]
   140004b78:	3cc182e1 	ldur	q1, [x23, #24]
   140004b7c:	3cc282e2 	ldur	q2, [x23, #40]
   140004b80:	ad0187e0 	stp	q0, q1, [sp, #48]
   140004b84:	3d8017e2 	str	q2, [sp, #80]
   140004b88:	b40000b5 	cbz	x21, 0x140004b9c
   140004b8c:	aa1403e0 	mov	x0, x20
   140004b90:	2a1f03e1 	mov	w1, wzr
   140004b94:	aa1503e2 	mov	x2, x21
   140004b98:	940013b9 	bl	0x140009a7c
   140004b9c:	ad4187e0 	ldp	q0, q1, [sp, #48]
   140004ba0:	52800028 	mov	w8, #0x1                   	// #1
   140004ba4:	52800049 	mov	w9, #0x2                   	// #2
   140004ba8:	3900027f 	strb	wzr, [x19]
   140004bac:	a900d674 	stp	x20, x21, [x19, #8]
   140004bb0:	3c818260 	stur	q0, [x19, #24]
   140004bb4:	3dc017e2 	ldr	q2, [sp, #80]
   140004bb8:	ad0007e0 	stp	q0, q1, [sp]
   140004bbc:	4e080d00 	dup	v0.2d, x8
   140004bc0:	91016268 	add	x8, x19, #0x58
   140004bc4:	3c828261 	stur	q1, [x19, #40]
   140004bc8:	3d800be2 	str	q2, [sp, #32]
   140004bcc:	3c838262 	stur	q2, [x19, #56]
   140004bd0:	3c848260 	stur	q0, [x19, #72]
   140004bd4:	089ffd09 	stlrb	w9, [x8]
   140004bd8:	aa1303e0 	mov	x0, x19
   140004bdc:	f94033fe 	ldr	x30, [sp, #96]
   140004be0:	a9494ff4 	ldp	x20, x19, [sp, #144]
   140004be4:	a94857f6 	ldp	x22, x21, [sp, #128]
   140004be8:	a9475ff8 	ldp	x24, x23, [sp, #112]
   140004bec:	910283ff 	add	sp, sp, #0xa0
   140004bf0:	d65f03c0 	ret
   140004bf4:	f9400008 	ldr	x8, [x0]
   140004bf8:	d280020a 	mov	x10, #0x10                  	// #16
   140004bfc:	52809fe9 	mov	w9, #0x4ff                 	// #1279
   140004c00:	f2c030aa 	movk	x10, #0x185, lsl #32
   140004c04:	d3748d08 	ubfiz	x8, x8, #12, #36
   140004c08:	d5182008 	msr	ttbr0_el1, x8
   140004c0c:	d5033fdf 	isb
   140004c10:	d518a209 	msr	mair_el1, x9
   140004c14:	d518204a 	msr	tcr_el1, x10
   140004c18:	d5033fdf 	isb
   140004c1c:	d5381008 	mrs	x8, sctlr_el1
   140004c20:	b2400108 	orr	x8, x8, #0x1
   140004c24:	d5181008 	msr	sctlr_el1, x8
   140004c28:	d5033fdf 	isb
   140004c2c:	a9410008 	ldp	x8, x0, [x0, #16]
   140004c30:	d61f0100 	br	x8
   140004c34:	d4200020 	brk	#0x1
   140004c38:	f940000a 	ldr	x10, [x0]
   140004c3c:	90000089 	adrp	x9, 0x140014000
   140004c40:	911ba129 	add	x9, x9, #0x6e8
   140004c44:	aa0103e8 	mov	x8, x1
   140004c48:	aa0803e0 	mov	x0, x8
   140004c4c:	8b0a1129 	add	x9, x9, x10, lsl #4
   140004c50:	a9400921 	ldp	x1, x2, [x9]
   140004c54:	1400099b 	b	0x1400072c0
   140004c58:	2a1f03e0 	mov	w0, wzr
   140004c5c:	d65f03c0 	ret
   140004c60:	aa0003e8 	mov	x8, x0
   140004c64:	5280002b 	mov	w11, #0x1                   	// #1
   140004c68:	f0000089 	adrp	x9, 0x140017000
   140004c6c:	91020129 	add	x9, x9, #0x80
   140004c70:	c85ffd2a 	ldaxr	x10, [x9]
   140004c74:	b50001ea 	cbnz	x10, 0x140004cb0
   140004c78:	c80cfd2b 	stlxr	w12, x11, [x9]
   140004c7c:	35ffffac 	cbnz	w12, 0x140004c70
   140004c80:	b40001ca 	cbz	x10, 0x140004cb8
   140004c84:	f100055f 	cmp	x10, #0x1
   140004c88:	54000101 	b.ne	0x140004ca8  // b.any
   140004c8c:	c8dffd28 	ldar	x8, [x9]
   140004c90:	f100051f 	cmp	x8, #0x1
   140004c94:	540000a1 	b.ne	0x140004ca8  // b.any
   140004c98:	d5033fdf 	isb
   140004c9c:	c8dffd28 	ldar	x8, [x9]
   140004ca0:	f100051f 	cmp	x8, #0x1
   140004ca4:	54ffffa0 	b.eq	0x140004c98  // b.none
   140004ca8:	52800020 	mov	w0, #0x1                   	// #1
   140004cac:	d65f03c0 	ret
   140004cb0:	d5033f5f 	clrex
   140004cb4:	b5fffe8a 	cbnz	x10, 0x140004c84
   140004cb8:	2a1f03e0 	mov	w0, wzr
   140004cbc:	5280004a 	mov	w10, #0x2                   	// #2
   140004cc0:	f000008b 	adrp	x11, 0x140017000
   140004cc4:	9100216b 	add	x11, x11, #0x8
   140004cc8:	a9000568 	stp	x8, x1, [x11]
   140004ccc:	c89ffd2a 	stlr	x10, [x9]
   140004cd0:	d65f03c0 	ret
   140004cd4:	d10243ff 	sub	sp, sp, #0x90
   140004cd8:	f90043fe 	str	x30, [sp, #128]
   140004cdc:	b5000463 	cbnz	x3, 0x140004d68
   140004ce0:	a940344e 	ldp	x14, x13, [x2]
   140004ce4:	f0000089 	adrp	x9, 0x140017000
   140004ce8:	91020129 	add	x9, x9, #0x80
   140004cec:	b9403048 	ldr	w8, [x2, #48]
   140004cf0:	f000008c 	adrp	x12, 0x140017000
   140004cf4:	9100218c 	add	x12, x12, #0x8
   140004cf8:	9000008f 	adrp	x15, 0x140014000
   140004cfc:	911a41ef 	add	x15, x15, #0x690
   140004d00:	a942284b 	ldp	x11, x10, [x2, #32]
   140004d04:	a9414051 	ldp	x17, x16, [x2, #16]
   140004d08:	c8dffd29 	ldar	x9, [x9]
   140004d0c:	a903b7ee 	stp	x14, x13, [sp, #56]
   140004d10:	a9423402 	ldp	x2, x13, [x0, #32]
   140004d14:	9000008e 	adrp	x14, 0x140014000
   140004d18:	9119e1ce 	add	x14, x14, #0x678
   140004d1c:	a905c3f1 	stp	x17, x16, [sp, #88]
   140004d20:	52800030 	mov	w16, #0x1                   	// #1
   140004d24:	f100093f 	cmp	x9, #0x2
   140004d28:	a904ffe1 	stp	x1, xzr, [sp, #72]
   140004d2c:	ad400400 	ldp	q0, q1, [x0]
   140004d30:	a90237e2 	stp	x2, x13, [sp, #32]
   140004d34:	910003e1 	mov	x1, sp
   140004d38:	a906afff 	stp	xzr, x11, [sp, #104]
   140004d3c:	f9003fea 	str	x10, [sp, #120]
   140004d40:	290623f0 	stp	w16, w8, [sp, #48]
   140004d44:	a940318d 	ldp	x13, x12, [x12]
   140004d48:	ad0007e0 	stp	q0, q1, [sp]
   140004d4c:	9a8e01a0 	csel	x0, x13, x14, eq	// eq = none
   140004d50:	9a8f0189 	csel	x9, x12, x15, eq	// eq = none
   140004d54:	f9401528 	ldr	x8, [x9, #40]
   140004d58:	d63f0100 	blr	x8
   140004d5c:	f94043fe 	ldr	x30, [sp, #128]
   140004d60:	910243ff 	add	sp, sp, #0x90
   140004d64:	d65f03c0 	ret
   140004d68:	90000080 	adrp	x0, 0x140014000
   140004d6c:	911e6000 	add	x0, x0, #0x798
   140004d70:	90000082 	adrp	x2, 0x140014000
   140004d74:	911fc042 	add	x2, x2, #0x7f0
   140004d78:	52800aa1 	mov	w1, #0x55                  	// #85
   140004d7c:	94001582 	bl	0x14000a384
   140004d80:	d4200020 	brk	#0x1
   140004d84:	a9bf03fe 	stp	x30, x0, [sp, #-16]!
   140004d88:	aa0103e8 	mov	x8, x1
   140004d8c:	90000081 	adrp	x1, 0x140014000
   140004d90:	91202021 	add	x1, x1, #0x808
   140004d94:	90000084 	adrp	x4, 0x140014000
   140004d98:	91206084 	add	x4, x4, #0x818
   140004d9c:	910023e3 	add	x3, sp, #0x8
   140004da0:	aa0803e0 	mov	x0, x8
   140004da4:	528001c2 	mov	w2, #0xe                   	// #14
   140004da8:	94000b5d 	bl	0x140007b1c
   140004dac:	f84107fe 	ldr	x30, [sp], #16
   140004db0:	d65f03c0 	ret
   140004db4:	f9400c09 	ldr	x9, [x0, #24]
   140004db8:	f9400529 	ldr	x9, [x9, #8]
   140004dbc:	ad400520 	ldp	q0, q1, [x9]
   140004dc0:	b9402129 	ldr	w9, [x9, #32]
   140004dc4:	ad000500 	stp	q0, q1, [x8]
   140004dc8:	b9002109 	str	w9, [x8, #32]
   140004dcc:	d65f03c0 	ret
   140004dd0:	d100c3ff 	sub	sp, sp, #0x30
   140004dd4:	f9400c08 	ldr	x8, [x0, #24]
   140004dd8:	f9400509 	ldr	x9, [x8, #8]
   140004ddc:	b9400d29 	ldr	w9, [x9, #12]
   140004de0:	71000d3f 	cmp	w9, #0x3
   140004de4:	54000080 	b.eq	0x140004df4  // b.none
   140004de8:	a9418500 	ldp	x0, x1, [x8, #24]
   140004dec:	9100c3ff 	add	sp, sp, #0x30
   140004df0:	d65f03c0 	ret
   140004df4:	90000088 	adrp	x8, 0x140014000
   140004df8:	91232108 	add	x8, x8, #0x8c8
   140004dfc:	52800029 	mov	w9, #0x1                   	// #1
   140004e00:	90000081 	adrp	x1, 0x140014000
   140004e04:	91236021 	add	x1, x1, #0x8d8
   140004e08:	910003e0 	mov	x0, sp
   140004e0c:	f90003ff 	str	xzr, [sp]
   140004e10:	a90127e8 	stp	x8, x9, [sp, #16]
   140004e14:	90000088 	adrp	x8, 0x140014000
   140004e18:	9120e108 	add	x8, x8, #0x838
   140004e1c:	a9027fe8 	stp	x8, xzr, [sp, #32]
   140004e20:	9400154d 	bl	0x14000a354
   140004e24:	d4200020 	brk	#0x1
   140004e28:	29408408 	ldp	w8, w1, [x0, #4]
   140004e2c:	aa0803e0 	mov	x0, x8
   140004e30:	d65f03c0 	ret
   140004e34:	b9400c00 	ldr	w0, [x0, #12]
   140004e38:	d65f03c0 	ret
   140004e3c:	b9402000 	ldr	w0, [x0, #32]
   140004e40:	d65f03c0 	ret
   140004e44:	f9400000 	ldr	x0, [x0]
   140004e48:	d65f03c0 	ret
   140004e4c:	f9400400 	ldr	x0, [x0, #8]
   140004e50:	d65f03c0 	ret
   140004e54:	f0000088 	adrp	x8, 0x140017000
   140004e58:	f9404900 	ldr	x0, [x8, #144]
   140004e5c:	b4000040 	cbz	x0, 0x140004e64
   140004e60:	d65f03c0 	ret
   140004e64:	90000080 	adrp	x0, 0x140014000
   140004e68:	91270000 	add	x0, x0, #0x9c0
   140004e6c:	90000082 	adrp	x2, 0x140014000
   140004e70:	91290042 	add	x2, x2, #0xa40
   140004e74:	52800481 	mov	w1, #0x24                  	// #36
   140004e78:	94001535 	bl	0x14000a34c
   140004e7c:	d4200020 	brk	#0x1
   140004e80:	f0000088 	adrp	x8, 0x140017000
   140004e84:	f9004901 	str	x1, [x8, #144]
   140004e88:	d65f03c0 	ret
   140004e8c:	f81f0ffe 	str	x30, [sp, #-16]!
   140004e90:	2a0303e8 	mov	w8, w3
   140004e94:	b40000e1 	cbz	x1, 0x140004eb0
   140004e98:	f100043f 	cmp	x1, #0x1
   140004e9c:	52800029 	mov	w9, #0x1                   	// #1
   140004ea0:	5280004a 	mov	w10, #0x2                   	// #2
   140004ea4:	aa0203e1 	mov	x1, x2
   140004ea8:	1a8a0129 	csel	w9, w9, w10, eq	// eq = none
   140004eac:	14000002 	b	0x140004eb4
   140004eb0:	2a1f03e9 	mov	w9, wzr
   140004eb4:	f940140a 	ldr	x10, [x0, #40]
   140004eb8:	f90007e1 	str	x1, [sp, #8]
   140004ebc:	910023e3 	add	x3, sp, #0x8
   140004ec0:	2a0903e0 	mov	w0, w9
   140004ec4:	2a0803e1 	mov	w1, w8
   140004ec8:	aa0403e2 	mov	x2, x4
   140004ecc:	d63f0140 	blr	x10
   140004ed0:	f94007e9 	ldr	x9, [sp, #8]
   140004ed4:	f100001f 	cmp	x0, #0x0
   140004ed8:	1a9f07e8 	cset	w8, ne	// ne = any
   140004edc:	9a800121 	csel	x1, x9, x0, eq	// eq = none
   140004ee0:	aa0803e0 	mov	x0, x8
   140004ee4:	f84107fe 	ldr	x30, [sp], #16
   140004ee8:	d65f03c0 	ret
   140004eec:	d10183ff 	sub	sp, sp, #0x60
   140004ef0:	f9401c08 	ldr	x8, [x0, #56]
   140004ef4:	910003e0 	mov	x0, sp
   140004ef8:	910023e2 	add	x2, sp, #0x8
   140004efc:	910043e3 	add	x3, sp, #0x10
   140004f00:	910073e4 	add	x4, sp, #0x1c
   140004f04:	aa1f03e1 	mov	x1, xzr
   140004f08:	f9002bfe 	str	x30, [sp, #80]
   140004f0c:	a9007fff 	stp	xzr, xzr, [sp]
   140004f10:	f9000bff 	str	xzr, [sp, #16]
   140004f14:	b9001fff 	str	wzr, [sp, #28]
   140004f18:	d63f0100 	blr	x8
   140004f1c:	d28000a8 	mov	x8, #0x5                   	// #5
   140004f20:	f9002fe0 	str	x0, [sp, #88]
   140004f24:	f2f00008 	movk	x8, #0x8000, lsl #48
   140004f28:	eb08001f 	cmp	x0, x8
   140004f2c:	540000c1 	b.ne	0x140004f44  // b.any
   140004f30:	f9400be0 	ldr	x0, [sp, #16]
   140004f34:	f94003e1 	ldr	x1, [sp]
   140004f38:	f9402bfe 	ldr	x30, [sp, #80]
   140004f3c:	910183ff 	add	sp, sp, #0x60
   140004f40:	d65f03c0 	ret
   140004f44:	90000082 	adrp	x2, 0x140014000
   140004f48:	91296042 	add	x2, x2, #0xa58
   140004f4c:	90000084 	adrp	x4, 0x140014000
   140004f50:	91298084 	add	x4, x4, #0xa60
   140004f54:	910163e1 	add	x1, sp, #0x58
   140004f58:	910083e3 	add	x3, sp, #0x20
   140004f5c:	2a1f03e0 	mov	w0, wzr
   140004f60:	f9001bff 	str	xzr, [sp, #48]
   140004f64:	940014eb 	bl	0x14000a310
   140004f68:	d4200020 	brk	#0x1
   140004f6c:	d10203ff 	sub	sp, sp, #0x80
   140004f70:	a90657fe 	stp	x30, x21, [sp, #96]
   140004f74:	aa0103f5 	mov	x21, x1
   140004f78:	a9074ff4 	stp	x20, x19, [sp, #112]
   140004f7c:	aa0203f4 	mov	x20, x2
   140004f80:	aa0803f3 	mov	x19, x8
   140004f84:	f2400828 	ands	x8, x1, #0x7
   140004f88:	f90007e2 	str	x2, [sp, #8]
   140004f8c:	b40000c2 	cbz	x2, 0x140004fa4
   140004f90:	f90017e8 	str	x8, [sp, #40]
   140004f94:	540004e1 	b.ne	0x140005030  // b.any
   140004f98:	a9017fff 	stp	xzr, xzr, [sp, #16]
   140004f9c:	b90027ff 	str	wzr, [sp, #36]
   140004fa0:	14000005 	b	0x140004fb4
   140004fa4:	a9017fff 	stp	xzr, xzr, [sp, #16]
   140004fa8:	b90027ff 	str	wzr, [sp, #36]
   140004fac:	f90017e8 	str	x8, [sp, #40]
   140004fb0:	54000521 	b.ne	0x140005054  // b.any
   140004fb4:	f9401c08 	ldr	x8, [x0, #56]
   140004fb8:	910023e0 	add	x0, sp, #0x8
   140004fbc:	910043e2 	add	x2, sp, #0x10
   140004fc0:	910063e3 	add	x3, sp, #0x18
   140004fc4:	910093e4 	add	x4, sp, #0x24
   140004fc8:	aa1503e1 	mov	x1, x21
   140004fcc:	d63f0100 	blr	x8
   140004fd0:	b40000c0 	cbz	x0, 0x140004fe8
   140004fd4:	a9007e60 	stp	x0, xzr, [x19]
   140004fd8:	a9474ff4 	ldp	x20, x19, [sp, #112]
   140004fdc:	a94657fe 	ldp	x30, x21, [sp, #96]
   140004fe0:	910203ff 	add	sp, sp, #0x80
   140004fe4:	d65f03c0 	ret
   140004fe8:	f9400fe8 	ldr	x8, [sp, #24]
   140004fec:	b4000148 	cbz	x8, 0x140005014
   140004ff0:	a940abe9 	ldp	x9, x10, [sp, #8]
   140004ff4:	a9012274 	stp	x20, x8, [x19, #16]
   140004ff8:	9ac80929 	udiv	x9, x9, x8
   140004ffc:	a900566a 	stp	x10, x21, [x19]
   140005000:	a902267f 	stp	xzr, x9, [x19, #32]
   140005004:	a9474ff4 	ldp	x20, x19, [sp, #112]
   140005008:	a94657fe 	ldp	x30, x21, [sp, #96]
   14000500c:	910203ff 	add	sp, sp, #0x80
   140005010:	d65f03c0 	ret
   140005014:	f0000060 	adrp	x0, 0x140014000
   140005018:	912c0000 	add	x0, x0, #0xb00
   14000501c:	f0000062 	adrp	x2, 0x140014000
   140005020:	912b8042 	add	x2, x2, #0xae0
   140005024:	52800321 	mov	w1, #0x19                  	// #25
   140005028:	940014d7 	bl	0x14000a384
   14000502c:	d4200020 	brk	#0x1
   140005030:	f0000068 	adrp	x8, 0x140014000
   140005034:	91266108 	add	x8, x8, #0x998
   140005038:	52800029 	mov	w9, #0x1                   	// #1
   14000503c:	f0000062 	adrp	x2, 0x140014000
   140005040:	91254042 	add	x2, x2, #0x950
   140005044:	f0000064 	adrp	x4, 0x140014000
   140005048:	9126a084 	add	x4, x4, #0x9a8
   14000504c:	f9001bff 	str	xzr, [sp, #48]
   140005050:	14000009 	b	0x140005074
   140005054:	f0000068 	adrp	x8, 0x140014000
   140005058:	912ae108 	add	x8, x8, #0xab8
   14000505c:	52800029 	mov	w9, #0x1                   	// #1
   140005060:	f9001bff 	str	xzr, [sp, #48]
   140005064:	f0000062 	adrp	x2, 0x140014000
   140005068:	91254042 	add	x2, x2, #0x950
   14000506c:	f0000064 	adrp	x4, 0x140014000
   140005070:	912b2084 	add	x4, x4, #0xac8
   140005074:	a90427e8 	stp	x8, x9, [sp, #64]
   140005078:	f0000068 	adrp	x8, 0x140014000
   14000507c:	9123c108 	add	x8, x8, #0x8f0
   140005080:	a9057fe8 	stp	x8, xzr, [sp, #80]
   140005084:	9100a3e1 	add	x1, sp, #0x28
   140005088:	9100c3e3 	add	x3, sp, #0x30
   14000508c:	2a1f03e0 	mov	w0, wzr
   140005090:	94001491 	bl	0x14000a2d4
   140005094:	d4200020 	brk	#0x1
   140005098:	d100c3ff 	sub	sp, sp, #0x30
   14000509c:	a9024ff4 	stp	x20, x19, [sp, #32]
   1400050a0:	aa0003f4 	mov	x20, x0
   1400050a4:	aa0803f3 	mov	x19, x8
   1400050a8:	f9409c08 	ldr	x8, [x0, #312]
   1400050ac:	910023e3 	add	x3, sp, #0x8
   1400050b0:	910063e4 	add	x4, sp, #0x18
   1400050b4:	52800040 	mov	w0, #0x2                   	// #2
   1400050b8:	aa1f03e2 	mov	x2, xzr
   1400050bc:	a900fbff 	stp	xzr, x30, [sp, #8]
   1400050c0:	f9000fff 	str	xzr, [sp, #24]
   1400050c4:	d63f0100 	blr	x8
   1400050c8:	b40000e0 	cbz	x0, 0x1400050e4
   1400050cc:	52800028 	mov	w8, #0x1                   	// #1
   1400050d0:	a9000268 	stp	x8, x0, [x19]
   1400050d4:	a9424ff4 	ldp	x20, x19, [sp, #32]
   1400050d8:	f9400bfe 	ldr	x30, [sp, #16]
   1400050dc:	9100c3ff 	add	sp, sp, #0x30
   1400050e0:	d65f03c0 	ret
   1400050e4:	f94007e8 	ldr	x8, [sp, #8]
   1400050e8:	f9400fe0 	ldr	x0, [sp, #24]
   1400050ec:	b40000a8 	cbz	x8, 0x140005100
   1400050f0:	b4000080 	cbz	x0, 0x140005100
   1400050f4:	f9400009 	ldr	x9, [x0]
   1400050f8:	aa1f03e8 	mov	x8, xzr
   1400050fc:	14000004 	b	0x14000510c
   140005100:	d28001c9 	mov	x9, #0xe                   	// #14
   140005104:	52800028 	mov	w8, #0x1                   	// #1
   140005108:	f2f00009 	movk	x9, #0x8000, lsl #48
   14000510c:	a9002668 	stp	x8, x9, [x19]
   140005110:	f9402689 	ldr	x9, [x20, #72]
   140005114:	d63f0120 	blr	x9
   140005118:	a9424ff4 	ldp	x20, x19, [sp, #32]
   14000511c:	f9400bfe 	ldr	x30, [sp, #16]
   140005120:	9100c3ff 	add	sp, sp, #0x30
   140005124:	d65f03c0 	ret
   140005128:	a941a009 	ldp	x9, x8, [x0, #24]
   14000512c:	eb08013f 	cmp	x9, x8
   140005130:	54000102 	b.cs	0x140005150  // b.hs, b.nlast
   140005134:	f9400008 	ldr	x8, [x0]
   140005138:	f940080a 	ldr	x10, [x0, #16]
   14000513c:	9b092148 	madd	x8, x10, x9, x8
   140005140:	91000529 	add	x9, x9, #0x1
   140005144:	f9000c09 	str	x9, [x0, #24]
   140005148:	aa0803e0 	mov	x0, x8
   14000514c:	d65f03c0 	ret
   140005150:	aa1f03e0 	mov	x0, xzr
   140005154:	d65f03c0 	ret
   140005158:	d10083ff 	sub	sp, sp, #0x20
   14000515c:	f9400000 	ldr	x0, [x0]
   140005160:	aa0103e9 	mov	x9, x1
   140005164:	a9014ffe 	stp	x30, x19, [sp, #16]
   140005168:	aa0803f3 	mov	x19, x8
   14000516c:	f90007e2 	str	x2, [sp, #8]
   140005170:	910023e1 	add	x1, sp, #0x8
   140005174:	f9401008 	ldr	x8, [x0, #32]
   140005178:	aa0903e2 	mov	x2, x9
   14000517c:	d63f0100 	blr	x8
   140005180:	f94007e8 	ldr	x8, [sp, #8]
   140005184:	b4000140 	cbz	x0, 0x1400051ac
   140005188:	d28000a9 	mov	x9, #0x5                   	// #5
   14000518c:	a9008268 	stp	x8, x0, [x19, #8]
   140005190:	f2f00009 	movk	x9, #0x8000, lsl #48
   140005194:	eb09001f 	cmp	x0, x9
   140005198:	1a9f17e9 	cset	w9, eq	// eq = none
   14000519c:	f9000269 	str	x9, [x19]
   1400051a0:	a9414ffe 	ldp	x30, x19, [sp, #16]
   1400051a4:	910083ff 	add	sp, sp, #0x20
   1400051a8:	d65f03c0 	ret
   1400051ac:	52800049 	mov	w9, #0x2                   	// #2
   1400051b0:	a9002269 	stp	x9, x8, [x19]
   1400051b4:	a9414ffe 	ldp	x30, x19, [sp, #16]
   1400051b8:	910083ff 	add	sp, sp, #0x20
   1400051bc:	d65f03c0 	ret
   1400051c0:	f81f0ffe 	str	x30, [sp, #-16]!
   1400051c4:	f9400000 	ldr	x0, [x0]
   1400051c8:	f9401c08 	ldr	x8, [x0, #56]
   1400051cc:	d63f0100 	blr	x8
   1400051d0:	f100001f 	cmp	x0, #0x0
   1400051d4:	aa0003e1 	mov	x1, x0
   1400051d8:	1a9f07e8 	cset	w8, ne	// ne = any
   1400051dc:	aa0803e0 	mov	x0, x8
   1400051e0:	f84107fe 	ldr	x30, [sp], #16
   1400051e4:	d65f03c0 	ret
   1400051e8:	d10083ff 	sub	sp, sp, #0x20
   1400051ec:	a9014ffe 	stp	x30, x19, [sp, #16]
   1400051f0:	aa0803f3 	mov	x19, x8
   1400051f4:	f9400408 	ldr	x8, [x0, #8]
   1400051f8:	910023e1 	add	x1, sp, #0x8
   1400051fc:	f90007ff 	str	xzr, [sp, #8]
   140005200:	d63f0100 	blr	x8
   140005204:	b40000c0 	cbz	x0, 0x14000521c
   140005208:	52800028 	mov	w8, #0x1                   	// #1
   14000520c:	a9000268 	stp	x8, x0, [x19]
   140005210:	a9414ffe 	ldp	x30, x19, [sp, #16]
   140005214:	910083ff 	add	sp, sp, #0x20
   140005218:	d65f03c0 	ret
   14000521c:	f94007e9 	ldr	x9, [sp, #8]
   140005220:	a900267f 	stp	xzr, x9, [x19]
   140005224:	a9414ffe 	ldp	x30, x19, [sp, #16]
   140005228:	910083ff 	add	sp, sp, #0x20
   14000522c:	d65f03c0 	ret
   140005230:	a9ba77fe 	stp	x30, x29, [sp, #-96]!
   140005234:	a9016ffc 	stp	x28, x27, [sp, #16]
   140005238:	a90267fa 	stp	x26, x25, [sp, #32]
   14000523c:	a9035ff8 	stp	x24, x23, [sp, #48]
   140005240:	a90457f6 	stp	x22, x21, [sp, #64]
   140005244:	a9054ff4 	stp	x20, x19, [sp, #80]
   140005248:	b4001281 	cbz	x1, 0x140005498
   14000524c:	a9405c55 	ldp	x21, x23, [x2]
   140005250:	529b0018 	mov	w24, #0xd800                	// #55296
   140005254:	5280fff9 	mov	w25, #0x7ff                 	// #2047
   140005258:	aa0103f3 	mov	x19, x1
   14000525c:	aa0003f4 	mov	x20, x0
   140005260:	aa1f03f6 	mov	x22, xzr
   140005264:	72bffdf8 	movk	w24, #0xffef, lsl #16
   140005268:	72bffdf9 	movk	w25, #0xffef, lsl #16
   14000526c:	f940085a 	ldr	x26, [x2, #16]
   140005270:	528001bb 	mov	w27, #0xd                   	// #13
   140005274:	5280015c 	mov	w28, #0xa                   	// #10
   140005278:	1400000a 	b	0x1400052a0
   14000527c:	f9400408 	ldr	x8, [x0, #8]
   140005280:	aa1503e1 	mov	x1, x21
   140005284:	d63f0100 	blr	x8
   140005288:	f100001f 	cmp	x0, #0x0
   14000528c:	1a9f07e8 	cset	w8, ne	// ne = any
   140005290:	b5001008 	cbnz	x8, 0x140005490
   140005294:	8b1603b6 	add	x22, x29, x22
   140005298:	eb1302df 	cmp	x22, x19
   14000529c:	54000fe2 	b.cs	0x140005498  // b.hs, b.nlast
   1400052a0:	38f66a89 	ldrsb	w9, [x20, x22]
   1400052a4:	12001d28 	and	w8, w9, #0xff
   1400052a8:	37f80809 	tbnz	w9, #31, 0x1400053a8
   1400052ac:	5280003d 	mov	w29, #0x1                   	// #1
   1400052b0:	f94002e0 	ldr	x0, [x23]
   1400052b4:	12003d09 	and	w9, w8, #0xffff
   1400052b8:	7100293f 	cmp	w9, #0xa
   1400052bc:	54000901 	b.ne	0x1400053dc  // b.any
   1400052c0:	f102001f 	cmp	x0, #0x80
   1400052c4:	54000fe8 	b.hi	0x1400054c0  // b.pmore
   1400052c8:	78207abb 	strh	w27, [x21, x0, lsl #1]
   1400052cc:	f94002e8 	ldr	x8, [x23]
   1400052d0:	91000500 	add	x0, x8, #0x1
   1400052d4:	f102001f 	cmp	x0, #0x80
   1400052d8:	f90002e0 	str	x0, [x23]
   1400052dc:	54000321 	b.ne	0x140005340  // b.any
   1400052e0:	d37ff908 	lsl	x8, x8, #1
   1400052e4:	aa1f03e9 	mov	x9, xzr
   1400052e8:	f9400340 	ldr	x0, [x26]
   1400052ec:	91001108 	add	x8, x8, #0x4
   1400052f0:	790202bf 	strh	wzr, [x21, #256]
   1400052f4:	f90002ff 	str	xzr, [x23]
   1400052f8:	b4000cc8 	cbz	x8, 0x140005490
   1400052fc:	78697aab 	ldrh	w11, [x21, x9, lsl #1]
   140005300:	aa0903ea 	mov	x10, x9
   140005304:	4a180169 	eor	w9, w11, w24
   140005308:	6b19013f 	cmp	w9, w25
   14000530c:	54000c29 	b.ls	0x140005490  // b.plast
   140005310:	91000549 	add	x9, x10, #0x1
   140005314:	d1000908 	sub	x8, x8, #0x2
   140005318:	35ffff0b 	cbnz	w11, 0x1400052f8
   14000531c:	f102015f 	cmp	x10, #0x80
   140005320:	54000b81 	b.ne	0x140005490  // b.any
   140005324:	f9400408 	ldr	x8, [x0, #8]
   140005328:	aa1503e1 	mov	x1, x21
   14000532c:	d63f0100 	blr	x8
   140005330:	f100001f 	cmp	x0, #0x0
   140005334:	1a9f07e8 	cset	w8, ne	// ne = any
   140005338:	b5000ac8 	cbnz	x8, 0x140005490
   14000533c:	f94002e0 	ldr	x0, [x23]
   140005340:	f102001f 	cmp	x0, #0x80
   140005344:	54000be8 	b.hi	0x1400054c0  // b.pmore
   140005348:	78207abc 	strh	w28, [x21, x0, lsl #1]
   14000534c:	f94002e8 	ldr	x8, [x23]
   140005350:	91000509 	add	x9, x8, #0x1
   140005354:	f102013f 	cmp	x9, #0x80
   140005358:	f90002e9 	str	x9, [x23]
   14000535c:	54fff9c1 	b.ne	0x140005294  // b.any
   140005360:	d37ff908 	lsl	x8, x8, #1
   140005364:	aa1f03e9 	mov	x9, xzr
   140005368:	f9400340 	ldr	x0, [x26]
   14000536c:	91001108 	add	x8, x8, #0x4
   140005370:	790202bf 	strh	wzr, [x21, #256]
   140005374:	f90002ff 	str	xzr, [x23]
   140005378:	b40008c8 	cbz	x8, 0x140005490
   14000537c:	78697aab 	ldrh	w11, [x21, x9, lsl #1]
   140005380:	aa0903ea 	mov	x10, x9
   140005384:	4a180169 	eor	w9, w11, w24
   140005388:	6b19013f 	cmp	w9, w25
   14000538c:	54000829 	b.ls	0x140005490  // b.plast
   140005390:	91000549 	add	x9, x10, #0x1
   140005394:	d1000908 	sub	x8, x8, #0x2
   140005398:	35ffff0b 	cbnz	w11, 0x140005378
   14000539c:	f102015f 	cmp	x10, #0x80
   1400053a0:	54fff6e0 	b.eq	0x14000527c  // b.none
   1400053a4:	1400003b 	b	0x140005490
   1400053a8:	121b0909 	and	w9, w8, #0xe0
   1400053ac:	7103013f 	cmp	w9, #0xc0
   1400053b0:	540004a1 	b.ne	0x140005444  // b.any
   1400053b4:	8b160289 	add	x9, x20, x22
   1400053b8:	1200110a 	and	w10, w8, #0x1f
   1400053bc:	5280005d 	mov	w29, #0x2                   	// #2
   1400053c0:	39400529 	ldrb	w9, [x9, #1]
   1400053c4:	12001528 	and	w8, w9, #0x3f
   1400053c8:	331a1148 	bfi	w8, w10, #6, #5
   1400053cc:	f94002e0 	ldr	x0, [x23]
   1400053d0:	12003d09 	and	w9, w8, #0xffff
   1400053d4:	7100293f 	cmp	w9, #0xa
   1400053d8:	54fff740 	b.eq	0x1400052c0  // b.none
   1400053dc:	f102001f 	cmp	x0, #0x80
   1400053e0:	54000708 	b.hi	0x1400054c0  // b.pmore
   1400053e4:	78207aa8 	strh	w8, [x21, x0, lsl #1]
   1400053e8:	f94002e8 	ldr	x8, [x23]
   1400053ec:	91000509 	add	x9, x8, #0x1
   1400053f0:	f102013f 	cmp	x9, #0x80
   1400053f4:	f90002e9 	str	x9, [x23]
   1400053f8:	54fff4e1 	b.ne	0x140005294  // b.any
   1400053fc:	d37ff908 	lsl	x8, x8, #1
   140005400:	aa1f03e9 	mov	x9, xzr
   140005404:	f9400340 	ldr	x0, [x26]
   140005408:	91001108 	add	x8, x8, #0x4
   14000540c:	790202bf 	strh	wzr, [x21, #256]
   140005410:	f90002ff 	str	xzr, [x23]
   140005414:	b40003e8 	cbz	x8, 0x140005490
   140005418:	78697aab 	ldrh	w11, [x21, x9, lsl #1]
   14000541c:	aa0903ea 	mov	x10, x9
   140005420:	4a180169 	eor	w9, w11, w24
   140005424:	6b19013f 	cmp	w9, w25
   140005428:	54000349 	b.ls	0x140005490  // b.plast
   14000542c:	91000549 	add	x9, x10, #0x1
   140005430:	d1000908 	sub	x8, x8, #0x2
   140005434:	35ffff0b 	cbnz	w11, 0x140005414
   140005438:	f102015f 	cmp	x10, #0x80
   14000543c:	54fff200 	b.eq	0x14000527c  // b.none
   140005440:	14000014 	b	0x140005490
   140005444:	121c0d09 	and	w9, w8, #0xf0
   140005448:	7103813f 	cmp	w9, #0xe0
   14000544c:	54000361 	b.ne	0x1400054b8  // b.any
   140005450:	91000ac0 	add	x0, x22, #0x2
   140005454:	eb13001f 	cmp	x0, x19
   140005458:	540003e2 	b.cs	0x1400054d4  // b.hs, b.nlast
   14000545c:	8b160289 	add	x9, x20, x22
   140005460:	53144d08 	lsl	w8, w8, #12
   140005464:	5280007d 	mov	w29, #0x3                   	// #3
   140005468:	3940052a 	ldrb	w10, [x9, #1]
   14000546c:	39400929 	ldrb	w9, [x9, #2]
   140005470:	1200154a 	and	w10, w10, #0x3f
   140005474:	331a1548 	bfi	w8, w10, #6, #6
   140005478:	33001528 	bfxil	w8, w9, #0, #6
   14000547c:	f94002e0 	ldr	x0, [x23]
   140005480:	12003d09 	and	w9, w8, #0xffff
   140005484:	7100293f 	cmp	w9, #0xa
   140005488:	54fff1c0 	b.eq	0x1400052c0  // b.none
   14000548c:	17ffffd4 	b	0x1400053dc
   140005490:	2a1f03e0 	mov	w0, wzr
   140005494:	14000002 	b	0x14000549c
   140005498:	52800040 	mov	w0, #0x2                   	// #2
   14000549c:	a9454ff4 	ldp	x20, x19, [sp, #80]
   1400054a0:	a94457f6 	ldp	x22, x21, [sp, #64]
   1400054a4:	a9435ff8 	ldp	x24, x23, [sp, #48]
   1400054a8:	a94267fa 	ldp	x26, x25, [sp, #32]
   1400054ac:	a9416ffc 	ldp	x28, x27, [sp, #16]
   1400054b0:	a8c677fe 	ldp	x30, x29, [sp], #96
   1400054b4:	d65f03c0 	ret
   1400054b8:	52800020 	mov	w0, #0x1                   	// #1
   1400054bc:	17fffff8 	b	0x14000549c
   1400054c0:	f0000062 	adrp	x2, 0x140014000
   1400054c4:	912fc042 	add	x2, x2, #0xbf0
   1400054c8:	52801021 	mov	w1, #0x81                  	// #129
   1400054cc:	940013bb 	bl	0x14000a3b8
   1400054d0:	d4200020 	brk	#0x1
   1400054d4:	f0000062 	adrp	x2, 0x140014000
   1400054d8:	912dc042 	add	x2, x2, #0xb70
   1400054dc:	aa1303e1 	mov	x1, x19
   1400054e0:	940013b6 	bl	0x14000a3b8
   1400054e4:	d4200020 	brk	#0x1
   1400054e8:	39400008 	ldrb	w8, [x0]
   1400054ec:	79400401 	ldrh	w1, [x0, #2]
   1400054f0:	7101fd1f 	cmp	w8, #0x7f
   1400054f4:	54000081 	b.ne	0x140005504  // b.any
   1400054f8:	39400408 	ldrb	w8, [x0, #1]
   1400054fc:	7103fd1f 	cmp	w8, #0xff
   140005500:	54000180 	b.eq	0x140005530  // b.none
   140005504:	aa0103e9 	mov	x9, x1
   140005508:	aa0003e8 	mov	x8, x0
   14000550c:	8b090108 	add	x8, x8, x9
   140005510:	79400509 	ldrh	w9, [x8, #2]
   140005514:	3940010a 	ldrb	w10, [x8]
   140005518:	8b090021 	add	x1, x1, x9
   14000551c:	7101fd5f 	cmp	w10, #0x7f
   140005520:	54ffff61 	b.ne	0x14000550c  // b.any
   140005524:	3940050a 	ldrb	w10, [x8, #1]
   140005528:	7103fd5f 	cmp	w10, #0xff
   14000552c:	54ffff01 	b.ne	0x14000550c  // b.any
   140005530:	d65f03c0 	ret
   140005534:	aa0103e0 	mov	x0, x1
   140005538:	f0000061 	adrp	x1, 0x140014000
   14000553c:	91302021 	add	x1, x1, #0xc08
   140005540:	52800042 	mov	w2, #0x2                   	// #2
   140005544:	1400075f 	b	0x1400072c0
   140005548:	aa0103e2 	mov	x2, x1
   14000554c:	a9400408 	ldp	x8, x1, [x0]
   140005550:	aa0803e0 	mov	x0, x8
   140005554:	14000ac4 	b	0x140008064
   140005558:	f9400c00 	ldr	x0, [x0, #24]
   14000555c:	d65f03c0 	ret
   140005560:	f81e0ffe 	str	x30, [sp, #-32]!
   140005564:	a9014ff4 	stp	x20, x19, [sp, #16]
   140005568:	b4000320 	cbz	x0, 0x1400055cc
   14000556c:	aa0803f4 	mov	x20, x8
   140005570:	f9401808 	ldr	x8, [x0, #48]
   140005574:	910023e1 	add	x1, sp, #0x8
   140005578:	aa0003f3 	mov	x19, x0
   14000557c:	f90007ff 	str	xzr, [sp, #8]
   140005580:	d63f0100 	blr	x8
   140005584:	b40000c0 	cbz	x0, 0x14000559c
   140005588:	b2410be8 	mov	x8, #0x8000000000000003    	// #-9223372036854775805
   14000558c:	eb08001f 	cmp	x0, x8
   140005590:	540000c1 	b.ne	0x1400055a8  // b.any
   140005594:	52800028 	mov	w8, #0x1                   	// #1
   140005598:	14000002 	b	0x1400055a0
   14000559c:	aa1f03e8 	mov	x8, xzr
   1400055a0:	a9004e88 	stp	x8, x19, [x20]
   1400055a4:	14000007 	b	0x1400055c0
   1400055a8:	52800048 	mov	w8, #0x2                   	// #2
   1400055ac:	f9400a69 	ldr	x9, [x19, #16]
   1400055b0:	a9000288 	stp	x8, x0, [x20]
   1400055b4:	aa1303e0 	mov	x0, x19
   1400055b8:	d63f0120 	blr	x9
   1400055bc:	b5000160 	cbnz	x0, 0x1400055e8
   1400055c0:	a9414ff4 	ldp	x20, x19, [sp, #16]
   1400055c4:	f84207fe 	ldr	x30, [sp], #32
   1400055c8:	d65f03c0 	ret
   1400055cc:	f0000060 	adrp	x0, 0x140014000
   1400055d0:	91314000 	add	x0, x0, #0xc50
   1400055d4:	f0000062 	adrp	x2, 0x140014000
   1400055d8:	91338042 	add	x2, x2, #0xce0
   1400055dc:	52800561 	mov	w1, #0x2b                  	// #43
   1400055e0:	94001369 	bl	0x14000a384
   1400055e4:	d4200020 	brk	#0x1
   1400055e8:	f90007e0 	str	x0, [sp, #8]
   1400055ec:	f0000060 	adrp	x0, 0x140014000
   1400055f0:	9133e000 	add	x0, x0, #0xcf8
   1400055f4:	f0000063 	adrp	x3, 0x140014000
   1400055f8:	91344063 	add	x3, x3, #0xd10
   1400055fc:	f0000064 	adrp	x4, 0x140014000
   140005600:	9134c084 	add	x4, x4, #0xd30
   140005604:	910023e2 	add	x2, sp, #0x8
   140005608:	52800281 	mov	w1, #0x14                  	// #20
   14000560c:	940013db 	bl	0x14000a578
   140005610:	d4200020 	brk	#0x1
   140005614:	f81f0ffe 	str	x30, [sp, #-16]!
   140005618:	f9400000 	ldr	x0, [x0]
   14000561c:	f9400808 	ldr	x8, [x0, #16]
   140005620:	d63f0100 	blr	x8
   140005624:	b5000060 	cbnz	x0, 0x140005630
   140005628:	f84107fe 	ldr	x30, [sp], #16
   14000562c:	d65f03c0 	ret
   140005630:	f90007e0 	str	x0, [sp, #8]
   140005634:	f0000060 	adrp	x0, 0x140014000
   140005638:	9133e000 	add	x0, x0, #0xcf8
   14000563c:	f0000063 	adrp	x3, 0x140014000
   140005640:	91344063 	add	x3, x3, #0xd10
   140005644:	f0000064 	adrp	x4, 0x140014000
   140005648:	9134c084 	add	x4, x4, #0xd30
   14000564c:	910023e2 	add	x2, sp, #0x8
   140005650:	52800281 	mov	w1, #0x14                  	// #20
   140005654:	940013c9 	bl	0x14000a578
   140005658:	d4200020 	brk	#0x1
   14000565c:	d100c3ff 	sub	sp, sp, #0x30
   140005660:	aa0103e8 	mov	x8, x1
   140005664:	a901fbe0 	stp	x0, x30, [sp, #24]
   140005668:	f90017e0 	str	x0, [sp, #40]
   14000566c:	f0000069 	adrp	x9, 0x140014000
   140005670:	91356129 	add	x9, x9, #0xd58
   140005674:	9100a3ea 	add	x10, sp, #0x28
   140005678:	5280008b 	mov	w11, #0x4                   	// #4
   14000567c:	f0000061 	adrp	x1, 0x140014000
   140005680:	91352021 	add	x1, x1, #0xd48
   140005684:	f0000063 	adrp	x3, 0x140014000
   140005688:	91353463 	add	x3, x3, #0xd4d
   14000568c:	f0000066 	adrp	x6, 0x140014000
   140005690:	9130c0c6 	add	x6, x6, #0xc30
   140005694:	f0000067 	adrp	x7, 0x140014000
   140005698:	91354ce7 	add	x7, x7, #0xd53
   14000569c:	910063e5 	add	x5, sp, #0x18
   1400056a0:	aa0803e0 	mov	x0, x8
   1400056a4:	528000a2 	mov	w2, #0x5                   	// #5
   1400056a8:	528000c4 	mov	w4, #0x6                   	// #6
   1400056ac:	a900a7ea 	stp	x10, x9, [sp, #8]
   1400056b0:	f90003eb 	str	x11, [sp]
   1400056b4:	9400084b 	bl	0x1400077e0
   1400056b8:	f94013fe 	ldr	x30, [sp, #32]
   1400056bc:	9100c3ff 	add	sp, sp, #0x30
   1400056c0:	d65f03c0 	ret
   1400056c4:	d10183ff 	sub	sp, sp, #0x60
   1400056c8:	f9400009 	ldr	x9, [x0]
   1400056cc:	92f0000a 	mov	x10, #0x7fffffffffffffff    	// #9223372036854775807
   1400056d0:	aa0103e8 	mov	x8, x1
   1400056d4:	f9002bfe 	str	x30, [sp, #80]
   1400056d8:	8b0a012a 	add	x10, x9, x10
   1400056dc:	f100895f 	cmp	x10, #0x22
   1400056e0:	54000148 	b.hi	0x140005708  // b.pmore
   1400056e4:	9000008b 	adrp	x11, 0x140015000
   1400056e8:	910c416b 	add	x11, x11, #0x310
   1400056ec:	1000008c 	adr	x12, 0x1400056fc
   1400056f0:	386a696d 	ldrb	w13, [x11, x10]
   1400056f4:	8b0d098c 	add	x12, x12, x13, lsl #2
   1400056f8:	d61f0180 	br	x12
   1400056fc:	90000089 	adrp	x9, 0x140015000
   140005700:	91078129 	add	x9, x9, #0x1e0
   140005704:	14000099 	b	0x140005968
   140005708:	f1001d3f 	cmp	x9, #0x7
   14000570c:	54000148 	b.hi	0x140005734  // b.pmore
   140005710:	9000008a 	adrp	x10, 0x140015000
   140005714:	910ccd4a 	add	x10, x10, #0x333
   140005718:	1000008b 	adr	x11, 0x140005728
   14000571c:	3869694c 	ldrb	w12, [x10, x9]
   140005720:	8b0c096b 	add	x11, x11, x12, lsl #2
   140005724:	d61f0160 	br	x11
   140005728:	90000089 	adrp	x9, 0x140015000
   14000572c:	910c0129 	add	x9, x9, #0x300
   140005730:	1400008e 	b	0x140005968
   140005734:	f9002fe9 	str	x9, [sp, #88]
   140005738:	f0000069 	adrp	x9, 0x140014000
   14000573c:	9136e129 	add	x9, x9, #0xdb8
   140005740:	9000000a 	adrp	x10, 0x140005000
   140005744:	9115214a 	add	x10, x10, #0x548
   140005748:	910163eb 	add	x11, sp, #0x58
   14000574c:	f90003ff 	str	xzr, [sp]
   140005750:	a9032be9 	stp	x9, x10, [sp, #48]
   140005754:	90000029 	adrp	x9, 0x140009000
   140005758:	911cd129 	add	x9, x9, #0x734
   14000575c:	5280006a 	mov	w10, #0x3                   	// #3
   140005760:	a90427eb 	stp	x11, x9, [sp, #64]
   140005764:	9100c3e9 	add	x9, sp, #0x30
   140005768:	f000006b 	adrp	x11, 0x140014000
   14000576c:	9136016b 	add	x11, x11, #0xd80
   140005770:	a901a7ea 	stp	x10, x9, [sp, #24]
   140005774:	52800049 	mov	w9, #0x2                   	// #2
   140005778:	f9000beb 	str	x11, [sp, #16]
   14000577c:	f90017e9 	str	x9, [sp, #40]
   140005780:	910003e1 	mov	x1, sp
   140005784:	aa0803e0 	mov	x0, x8
   140005788:	940007f6 	bl	0x140007760
   14000578c:	f9402bfe 	ldr	x30, [sp, #80]
   140005790:	910183ff 	add	sp, sp, #0x60
   140005794:	d65f03c0 	ret
   140005798:	90000089 	adrp	x9, 0x140015000
   14000579c:	91070129 	add	x9, x9, #0x1c0
   1400057a0:	14000072 	b	0x140005968
   1400057a4:	90000089 	adrp	x9, 0x140015000
   1400057a8:	91066129 	add	x9, x9, #0x198
   1400057ac:	1400006f 	b	0x140005968
   1400057b0:	90000089 	adrp	x9, 0x140015000
   1400057b4:	9105e129 	add	x9, x9, #0x178
   1400057b8:	1400006c 	b	0x140005968
   1400057bc:	90000089 	adrp	x9, 0x140015000
   1400057c0:	91056129 	add	x9, x9, #0x158
   1400057c4:	14000069 	b	0x140005968
   1400057c8:	90000089 	adrp	x9, 0x140015000
   1400057cc:	9104e129 	add	x9, x9, #0x138
   1400057d0:	14000066 	b	0x140005968
   1400057d4:	90000089 	adrp	x9, 0x140015000
   1400057d8:	91046129 	add	x9, x9, #0x118
   1400057dc:	14000063 	b	0x140005968
   1400057e0:	90000089 	adrp	x9, 0x140015000
   1400057e4:	9103e129 	add	x9, x9, #0xf8
   1400057e8:	14000060 	b	0x140005968
   1400057ec:	90000089 	adrp	x9, 0x140015000
   1400057f0:	91036129 	add	x9, x9, #0xd8
   1400057f4:	1400005d 	b	0x140005968
   1400057f8:	90000089 	adrp	x9, 0x140015000
   1400057fc:	9102e129 	add	x9, x9, #0xb8
   140005800:	1400005a 	b	0x140005968
   140005804:	90000089 	adrp	x9, 0x140015000
   140005808:	91026129 	add	x9, x9, #0x98
   14000580c:	14000057 	b	0x140005968
   140005810:	90000089 	adrp	x9, 0x140015000
   140005814:	9101e129 	add	x9, x9, #0x78
   140005818:	14000054 	b	0x140005968
   14000581c:	90000089 	adrp	x9, 0x140015000
   140005820:	91018129 	add	x9, x9, #0x60
   140005824:	14000051 	b	0x140005968
   140005828:	90000089 	adrp	x9, 0x140015000
   14000582c:	91010129 	add	x9, x9, #0x40
   140005830:	1400004e 	b	0x140005968
   140005834:	90000089 	adrp	x9, 0x140015000
   140005838:	91008129 	add	x9, x9, #0x20
   14000583c:	1400004b 	b	0x140005968
   140005840:	90000089 	adrp	x9, 0x140015000
   140005844:	91000129 	add	x9, x9, #0x0
   140005848:	14000048 	b	0x140005968
   14000584c:	f0000069 	adrp	x9, 0x140014000
   140005850:	913f8129 	add	x9, x9, #0xfe0
   140005854:	14000045 	b	0x140005968
   140005858:	f0000069 	adrp	x9, 0x140014000
   14000585c:	913f0129 	add	x9, x9, #0xfc0
   140005860:	14000042 	b	0x140005968
   140005864:	f0000069 	adrp	x9, 0x140014000
   140005868:	913ea129 	add	x9, x9, #0xfa8
   14000586c:	1400003f 	b	0x140005968
   140005870:	f0000069 	adrp	x9, 0x140014000
   140005874:	913e2129 	add	x9, x9, #0xf88
   140005878:	1400003c 	b	0x140005968
   14000587c:	f0000069 	adrp	x9, 0x140014000
   140005880:	913da129 	add	x9, x9, #0xf68
   140005884:	14000039 	b	0x140005968
   140005888:	f0000069 	adrp	x9, 0x140014000
   14000588c:	913d4129 	add	x9, x9, #0xf50
   140005890:	14000036 	b	0x140005968
   140005894:	f0000069 	adrp	x9, 0x140014000
   140005898:	913cc129 	add	x9, x9, #0xf30
   14000589c:	14000033 	b	0x140005968
   1400058a0:	f0000069 	adrp	x9, 0x140014000
   1400058a4:	913c4129 	add	x9, x9, #0xf10
   1400058a8:	14000030 	b	0x140005968
   1400058ac:	f0000069 	adrp	x9, 0x140014000
   1400058b0:	913bc129 	add	x9, x9, #0xef0
   1400058b4:	1400002d 	b	0x140005968
   1400058b8:	f0000069 	adrp	x9, 0x140014000
   1400058bc:	913b2129 	add	x9, x9, #0xec8
   1400058c0:	1400002a 	b	0x140005968
   1400058c4:	f0000069 	adrp	x9, 0x140014000
   1400058c8:	913a8129 	add	x9, x9, #0xea0
   1400058cc:	14000027 	b	0x140005968
   1400058d0:	f0000069 	adrp	x9, 0x140014000
   1400058d4:	913a0129 	add	x9, x9, #0xe80
   1400058d8:	14000024 	b	0x140005968
   1400058dc:	f0000069 	adrp	x9, 0x140014000
   1400058e0:	91398129 	add	x9, x9, #0xe60
   1400058e4:	14000021 	b	0x140005968
   1400058e8:	f0000069 	adrp	x9, 0x140014000
   1400058ec:	91390129 	add	x9, x9, #0xe40
   1400058f0:	1400001e 	b	0x140005968
   1400058f4:	f0000069 	adrp	x9, 0x140014000
   1400058f8:	91388129 	add	x9, x9, #0xe20
   1400058fc:	1400001b 	b	0x140005968
   140005900:	f0000069 	adrp	x9, 0x140014000
   140005904:	91380129 	add	x9, x9, #0xe00
   140005908:	14000018 	b	0x140005968
   14000590c:	f0000069 	adrp	x9, 0x140014000
   140005910:	91376129 	add	x9, x9, #0xdd8
   140005914:	14000015 	b	0x140005968
   140005918:	90000089 	adrp	x9, 0x140015000
   14000591c:	910ba129 	add	x9, x9, #0x2e8
   140005920:	14000012 	b	0x140005968
   140005924:	90000089 	adrp	x9, 0x140015000
   140005928:	910b0129 	add	x9, x9, #0x2c0
   14000592c:	1400000f 	b	0x140005968
   140005930:	90000089 	adrp	x9, 0x140015000
   140005934:	910a6129 	add	x9, x9, #0x298
   140005938:	1400000c 	b	0x140005968
   14000593c:	90000089 	adrp	x9, 0x140015000
   140005940:	9109c129 	add	x9, x9, #0x270
   140005944:	14000009 	b	0x140005968
   140005948:	90000089 	adrp	x9, 0x140015000
   14000594c:	91092129 	add	x9, x9, #0x248
   140005950:	14000006 	b	0x140005968
   140005954:	90000089 	adrp	x9, 0x140015000
   140005958:	9108a129 	add	x9, x9, #0x228
   14000595c:	14000003 	b	0x140005968
   140005960:	90000089 	adrp	x9, 0x140015000
   140005964:	91082129 	add	x9, x9, #0x208
   140005968:	5280002a 	mov	w10, #0x1                   	// #1
   14000596c:	f90003ff 	str	xzr, [sp]
   140005970:	a9012be9 	stp	x9, x10, [sp, #16]
   140005974:	f0000069 	adrp	x9, 0x140014000
   140005978:	91304129 	add	x9, x9, #0xc10
   14000597c:	a9027fe9 	stp	x9, xzr, [sp, #32]
   140005980:	910003e1 	mov	x1, sp
   140005984:	aa0803e0 	mov	x0, x8
   140005988:	94000776 	bl	0x140007760
   14000598c:	f9402bfe 	ldr	x30, [sp, #80]
   140005990:	910183ff 	add	sp, sp, #0x60
   140005994:	d65f03c0 	ret
   140005998:	f9400008 	ldr	x8, [x0]
   14000599c:	f9402100 	ldr	x0, [x8, #64]
   1400059a0:	d65f03c0 	ret
   1400059a4:	f9400008 	ldr	x8, [x0]
   1400059a8:	f9403100 	ldr	x0, [x8, #96]
   1400059ac:	d65f03c0 	ret
   1400059b0:	d10283ff 	sub	sp, sp, #0xa0
   1400059b4:	a9075ff8 	stp	x24, x23, [sp, #112]
   1400059b8:	f9403018 	ldr	x24, [x0, #96]
   1400059bc:	a90857f6 	stp	x22, x21, [sp, #128]
   1400059c0:	aa0203f6 	mov	x22, x2
   1400059c4:	a9094ff4 	stp	x20, x19, [sp, #144]
   1400059c8:	aa0003f4 	mov	x20, x0
   1400059cc:	aa0103f7 	mov	x23, x1
   1400059d0:	aa0803f3 	mov	x19, x8
   1400059d4:	910083e8 	add	x8, sp, #0x20
   1400059d8:	aa1803e0 	mov	x0, x24
   1400059dc:	aa0203e1 	mov	x1, x2
   1400059e0:	aa0303e2 	mov	x2, x3
   1400059e4:	a9056ffe 	stp	x30, x27, [sp, #80]
   1400059e8:	aa0303f5 	mov	x21, x3
   1400059ec:	a90667fa 	stp	x26, x25, [sp, #96]
   1400059f0:	910083fa 	add	x26, sp, #0x20
   1400059f4:	97fffd5e 	bl	0x140004f6c
   1400059f8:	a94267e1 	ldp	x1, x25, [sp, #32]
   1400059fc:	b4000399 	cbz	x25, 0x140005a6c
   140005a00:	adc08740 	ldp	q0, q1, [x26, #16]!
   140005a04:	d280005b 	mov	x27, #0x2                   	// #2
   140005a08:	f2f0001b 	movk	x27, #0x8000, lsl #48
   140005a0c:	f9407708 	ldr	x8, [x24, #232]
   140005a10:	aa1703e0 	mov	x0, x23
   140005a14:	ad0007e0 	stp	q0, q1, [sp]
   140005a18:	d63f0100 	blr	x8
   140005a1c:	eb1b001f 	cmp	x0, x27
   140005a20:	540001e1 	b.ne	0x140005a5c  // b.any
   140005a24:	910083e8 	add	x8, sp, #0x20
   140005a28:	aa1803e0 	mov	x0, x24
   140005a2c:	aa1603e1 	mov	x1, x22
   140005a30:	aa1503e2 	mov	x2, x21
   140005a34:	97fffd4e 	bl	0x140004f6c
   140005a38:	a94267e1 	ldp	x1, x25, [sp, #32]
   140005a3c:	b4000199 	cbz	x25, 0x140005a6c
   140005a40:	ad400740 	ldp	q0, q1, [x26]
   140005a44:	f9407708 	ldr	x8, [x24, #232]
   140005a48:	aa1703e0 	mov	x0, x23
   140005a4c:	ad0007e0 	stp	q0, q1, [sp]
   140005a50:	d63f0100 	blr	x8
   140005a54:	eb1b001f 	cmp	x0, x27
   140005a58:	54fffe60 	b.eq	0x140005a24  // b.none
   140005a5c:	b40000e0 	cbz	x0, 0x140005a78
   140005a60:	aa1f03f4 	mov	x20, xzr
   140005a64:	f9000660 	str	x0, [x19, #8]
   140005a68:	14000007 	b	0x140005a84
   140005a6c:	aa1f03f4 	mov	x20, xzr
   140005a70:	f9000661 	str	x1, [x19, #8]
   140005a74:	14000004 	b	0x140005a84
   140005a78:	ad4007e0 	ldp	q0, q1, [sp]
   140005a7c:	f9000679 	str	x25, [x19, #8]
   140005a80:	ad008660 	stp	q0, q1, [x19, #16]
   140005a84:	f9000274 	str	x20, [x19]
   140005a88:	a9494ff4 	ldp	x20, x19, [sp, #144]
   140005a8c:	a94857f6 	ldp	x22, x21, [sp, #128]
   140005a90:	a9475ff8 	ldp	x24, x23, [sp, #112]
   140005a94:	a94667fa 	ldp	x26, x25, [sp, #96]
   140005a98:	a9456ffe 	ldp	x30, x27, [sp, #80]
   140005a9c:	910283ff 	add	sp, sp, #0xa0
   140005aa0:	d65f03c0 	ret
   140005aa4:	f81f0ffe 	str	x30, [sp, #-16]!
   140005aa8:	f9401808 	ldr	x8, [x0, #48]
   140005aac:	d63f0100 	blr	x8
   140005ab0:	f100001f 	cmp	x0, #0x0
   140005ab4:	aa0003e1 	mov	x1, x0
   140005ab8:	1a9f07e8 	cset	w8, ne	// ne = any
   140005abc:	aa0803e0 	mov	x0, x8
   140005ac0:	f84107fe 	ldr	x30, [sp], #16
   140005ac4:	d65f03c0 	ret
   140005ac8:	d10503ff 	sub	sp, sp, #0x140
   140005acc:	910003e9 	mov	x9, sp
   140005ad0:	aa0203e8 	mov	x8, x2
   140005ad4:	6f00e400 	movi	v0.2d, #0x0
   140005ad8:	910423ea 	add	x10, sp, #0x108
   140005adc:	910463e2 	add	x2, sp, #0x118
   140005ae0:	a91377fe 	stp	x30, x29, [sp, #304]
   140005ae4:	a91127e0 	stp	x0, x9, [sp, #272]
   140005ae8:	910443e9 	add	x9, sp, #0x110
   140005aec:	aa0103e0 	mov	x0, x1
   140005af0:	aa0803e1 	mov	x1, x8
   140005af4:	790203ff 	strh	wzr, [sp, #256]
   140005af8:	ad0003e0 	stp	q0, q0, [sp]
   140005afc:	ad0103e0 	stp	q0, q0, [sp, #32]
   140005b00:	ad0203e0 	stp	q0, q0, [sp, #64]
   140005b04:	ad0303e0 	stp	q0, q0, [sp, #96]
   140005b08:	ad0403e0 	stp	q0, q0, [sp, #128]
   140005b0c:	ad0503e0 	stp	q0, q0, [sp, #160]
   140005b10:	ad0603e0 	stp	q0, q0, [sp, #192]
   140005b14:	ad0703e0 	stp	q0, q0, [sp, #224]
   140005b18:	f90087ff 	str	xzr, [sp, #264]
   140005b1c:	a91227ea 	stp	x10, x9, [sp, #288]
   140005b20:	97fffdc4 	bl	0x140005230
   140005b24:	12001c08 	and	w8, w0, #0xff
   140005b28:	7100091f 	cmp	w8, #0x2
   140005b2c:	54000441 	b.ne	0x140005bb4  // b.any
   140005b30:	f94087e0 	ldr	x0, [sp, #264]
   140005b34:	f102001f 	cmp	x0, #0x80
   140005b38:	54000468 	b.hi	0x140005bc4  // b.pmore
   140005b3c:	d37ff80e 	lsl	x14, x0, #1
   140005b40:	529b000c 	mov	w12, #0xd800                	// #55296
   140005b44:	5281000d 	mov	w13, #0x800                 	// #2048
   140005b48:	aa1f03eb 	mov	x11, xzr
   140005b4c:	f9408be8 	ldr	x8, [sp, #272]
   140005b50:	910003e9 	mov	x9, sp
   140005b54:	910009ca 	add	x10, x14, #0x2
   140005b58:	72bffdec 	movk	w12, #0xffef, lsl #16
   140005b5c:	72bffded 	movk	w13, #0xffef, lsl #16
   140005b60:	782e693f 	strh	wzr, [x9, x14]
   140005b64:	b400028a 	cbz	x10, 0x140005bb4
   140005b68:	786b792f 	ldrh	w15, [x9, x11, lsl #1]
   140005b6c:	aa0b03ee 	mov	x14, x11
   140005b70:	4a0c01eb 	eor	w11, w15, w12
   140005b74:	6b0d017f 	cmp	w11, w13
   140005b78:	540001e3 	b.cc	0x140005bb4  // b.lo, b.ul, b.last
   140005b7c:	910005cb 	add	x11, x14, #0x1
   140005b80:	d100094a 	sub	x10, x10, #0x2
   140005b84:	35ffff0f 	cbnz	w15, 0x140005b64
   140005b88:	eb0001df 	cmp	x14, x0
   140005b8c:	54000141 	b.ne	0x140005bb4  // b.any
   140005b90:	f9400509 	ldr	x9, [x8, #8]
   140005b94:	910003e1 	mov	x1, sp
   140005b98:	aa0803e0 	mov	x0, x8
   140005b9c:	d63f0120 	blr	x9
   140005ba0:	f100001f 	cmp	x0, #0x0
   140005ba4:	1a9f07e0 	cset	w0, ne	// ne = any
   140005ba8:	a95377fe 	ldp	x30, x29, [sp, #304]
   140005bac:	910503ff 	add	sp, sp, #0x140
   140005bb0:	d65f03c0 	ret
   140005bb4:	52800020 	mov	w0, #0x1                   	// #1
   140005bb8:	a95377fe 	ldp	x30, x29, [sp, #304]
   140005bbc:	910503ff 	add	sp, sp, #0x140
   140005bc0:	d65f03c0 	ret
   140005bc4:	90000082 	adrp	x2, 0x140015000
   140005bc8:	910ea042 	add	x2, x2, #0x3a8
   140005bcc:	52801021 	mov	w1, #0x81                  	// #129
   140005bd0:	940011fa 	bl	0x14000a3b8
   140005bd4:	d4200020 	brk	#0x1
   140005bd8:	d10043ff 	sub	sp, sp, #0x10
   140005bdc:	f240081f 	tst	x0, #0x7
   140005be0:	54000061 	b.ne	0x140005bec  // b.any
   140005be4:	910043ff 	add	sp, sp, #0x10
   140005be8:	d65f03c0 	ret
   140005bec:	52800028 	mov	w8, #0x1                   	// #1
   140005bf0:	90000080 	adrp	x0, 0x140015000
   140005bf4:	910f0000 	add	x0, x0, #0x3c0
   140005bf8:	90000083 	adrp	x3, 0x140015000
   140005bfc:	910fc063 	add	x3, x3, #0x3f0
   140005c00:	90000084 	adrp	x4, 0x140015000
   140005c04:	9111c084 	add	x4, x4, #0x470
   140005c08:	91003fe2 	add	x2, sp, #0xf
   140005c0c:	52800561 	mov	w1, #0x2b                  	// #43
   140005c10:	39003fe8 	strb	w8, [sp, #15]
   140005c14:	94001259 	bl	0x14000a578
   140005c18:	d4200020 	brk	#0x1
   140005c1c:	f81e0ffe 	str	x30, [sp, #-32]!
   140005c20:	a9014ff4 	stp	x20, x19, [sp, #16]
   140005c24:	aa0003f4 	mov	x20, x0
   140005c28:	aa0103e0 	mov	x0, x1
   140005c2c:	aa0103f3 	mov	x19, x1
   140005c30:	940006d9 	bl	0x140007794
   140005c34:	360000c0 	tbz	w0, #0, 0x140005c4c
   140005c38:	aa1403e0 	mov	x0, x20
   140005c3c:	aa1303e1 	mov	x1, x19
   140005c40:	a9414ff4 	ldp	x20, x19, [sp, #16]
   140005c44:	f84207fe 	ldr	x30, [sp], #32
   140005c48:	14000d85 	b	0x14000925c
   140005c4c:	aa1303e0 	mov	x0, x19
   140005c50:	940006d4 	bl	0x1400077a0
   140005c54:	360000c0 	tbz	w0, #0, 0x140005c6c
   140005c58:	aa1403e0 	mov	x0, x20
   140005c5c:	aa1303e1 	mov	x1, x19
   140005c60:	a9414ff4 	ldp	x20, x19, [sp, #16]
   140005c64:	f84207fe 	ldr	x30, [sp], #32
   140005c68:	14000da5 	b	0x1400092fc
   140005c6c:	aa1403e0 	mov	x0, x20
   140005c70:	aa1303e1 	mov	x1, x19
   140005c74:	a9414ff4 	ldp	x20, x19, [sp, #16]
   140005c78:	f84207fe 	ldr	x30, [sp], #32
   140005c7c:	14000eae 	b	0x140009734
   140005c80:	d10783ff 	sub	sp, sp, #0x1e0
   140005c84:	aa0103e9 	mov	x9, x1
   140005c88:	a91d4ff4 	stp	x20, x19, [sp, #464]
   140005c8c:	aa0003f4 	mov	x20, x0
   140005c90:	90000081 	adrp	x1, 0x140015000
   140005c94:	91122021 	add	x1, x1, #0x488
   140005c98:	910003e8 	mov	x8, sp
   140005c9c:	aa0903e0 	mov	x0, x9
   140005ca0:	528001a2 	mov	w2, #0xd                   	// #13
   140005ca4:	a91a77fe 	stp	x30, x29, [sp, #416]
   140005ca8:	a91b5ff8 	stp	x24, x23, [sp, #432]
   140005cac:	a91c57f6 	stp	x22, x21, [sp, #448]
   140005cb0:	940006bf 	bl	0x1400077ac
   140005cb4:	aa1403f3 	mov	x19, x20
   140005cb8:	b8430660 	ldr	w0, [x19], #48
   140005cbc:	94000f85 	bl	0x140009ad0
   140005cc0:	a90107e0 	stp	x0, x1, [sp, #16]
   140005cc4:	90000081 	adrp	x1, 0x140015000
   140005cc8:	91125421 	add	x1, x1, #0x495
   140005ccc:	90000084 	adrp	x4, 0x140015000
   140005cd0:	91128084 	add	x4, x4, #0x4a0
   140005cd4:	910003e0 	mov	x0, sp
   140005cd8:	910043e3 	add	x3, sp, #0x10
   140005cdc:	528000c2 	mov	w2, #0x6                   	// #6
   140005ce0:	94000241 	bl	0x1400065e4
   140005ce4:	91001288 	add	x8, x20, #0x4
   140005ce8:	90000029 	adrp	x9, 0x140009000
   140005cec:	9104b129 	add	x9, x9, #0x12c
   140005cf0:	90000095 	adrp	x21, 0x140015000
   140005cf4:	911382b5 	add	x21, x21, #0x4e0
   140005cf8:	90000097 	adrp	x23, 0x140015000
   140005cfc:	911342f7 	add	x23, x23, #0x4d0
   140005d00:	52800036 	mov	w22, #0x1                   	// #1
   140005d04:	a90527e8 	stp	x8, x9, [sp, #80]
   140005d08:	910143e8 	add	x8, sp, #0x50
   140005d0c:	90000081 	adrp	x1, 0x140015000
   140005d10:	91130021 	add	x1, x1, #0x4c0
   140005d14:	910083e3 	add	x3, sp, #0x20
   140005d18:	528000e2 	mov	w2, #0x7                   	// #7
   140005d1c:	aa1503e4 	mov	x4, x21
   140005d20:	a9035bf7 	stp	x23, x22, [sp, #48]
   140005d24:	f90013ff 	str	xzr, [sp, #32]
   140005d28:	a9045be8 	stp	x8, x22, [sp, #64]
   140005d2c:	9400022e 	bl	0x1400065e4
   140005d30:	91002288 	add	x8, x20, #0x8
   140005d34:	90000038 	adrp	x24, 0x140009000
   140005d38:	91097318 	add	x24, x24, #0x25c
   140005d3c:	90000081 	adrp	x1, 0x140015000
   140005d40:	91140021 	add	x1, x1, #0x500
   140005d44:	910183e3 	add	x3, sp, #0x60
   140005d48:	52800102 	mov	w2, #0x8                   	// #8
   140005d4c:	aa1503e4 	mov	x4, x21
   140005d50:	a90963e8 	stp	x8, x24, [sp, #144]
   140005d54:	910243e8 	add	x8, sp, #0x90
   140005d58:	a9075bf7 	stp	x23, x22, [sp, #112]
   140005d5c:	f90033ff 	str	xzr, [sp, #96]
   140005d60:	a9085be8 	stp	x8, x22, [sp, #128]
   140005d64:	94000220 	bl	0x1400065e4
   140005d68:	91004288 	add	x8, x20, #0x10
   140005d6c:	910343e9 	add	x9, sp, #0xd0
   140005d70:	90000081 	adrp	x1, 0x140015000
   140005d74:	91142021 	add	x1, x1, #0x508
   140005d78:	910283e3 	add	x3, sp, #0xa0
   140005d7c:	528000e2 	mov	w2, #0x7                   	// #7
   140005d80:	aa1503e4 	mov	x4, x21
   140005d84:	a90b5bf7 	stp	x23, x22, [sp, #176]
   140005d88:	f90053ff 	str	xzr, [sp, #160]
   140005d8c:	a90d63e8 	stp	x8, x24, [sp, #208]
   140005d90:	a90c5be9 	stp	x9, x22, [sp, #192]
   140005d94:	94000214 	bl	0x1400065e4
   140005d98:	91006288 	add	x8, x20, #0x18
   140005d9c:	910443e9 	add	x9, sp, #0x110
   140005da0:	90000081 	adrp	x1, 0x140015000
   140005da4:	91143c21 	add	x1, x1, #0x50f
   140005da8:	910383e3 	add	x3, sp, #0xe0
   140005dac:	528000e2 	mov	w2, #0x7                   	// #7
   140005db0:	aa1503e4 	mov	x4, x21
   140005db4:	a90f5bf7 	stp	x23, x22, [sp, #240]
   140005db8:	f90073ff 	str	xzr, [sp, #224]
   140005dbc:	a91163e8 	stp	x8, x24, [sp, #272]
   140005dc0:	a9105be9 	stp	x9, x22, [sp, #256]
   140005dc4:	94000208 	bl	0x1400065e4
   140005dc8:	91008288 	add	x8, x20, #0x20
   140005dcc:	910543e9 	add	x9, sp, #0x150
   140005dd0:	90000081 	adrp	x1, 0x140015000
   140005dd4:	91145821 	add	x1, x1, #0x516
   140005dd8:	910483e3 	add	x3, sp, #0x120
   140005ddc:	52800102 	mov	w2, #0x8                   	// #8
   140005de0:	aa1503e4 	mov	x4, x21
   140005de4:	a9135bf7 	stp	x23, x22, [sp, #304]
   140005de8:	f90093ff 	str	xzr, [sp, #288]
   140005dec:	a91563e8 	stp	x8, x24, [sp, #336]
   140005df0:	a9145be9 	stp	x9, x22, [sp, #320]
   140005df4:	940001fc 	bl	0x1400065e4
   140005df8:	9100a288 	add	x8, x20, #0x28
   140005dfc:	910643e9 	add	x9, sp, #0x190
   140005e00:	90000081 	adrp	x1, 0x140015000
   140005e04:	91147821 	add	x1, x1, #0x51e
   140005e08:	910583e3 	add	x3, sp, #0x160
   140005e0c:	528000e2 	mov	w2, #0x7                   	// #7
   140005e10:	aa1503e4 	mov	x4, x21
   140005e14:	a9175bf7 	stp	x23, x22, [sp, #368]
   140005e18:	f900b3ff 	str	xzr, [sp, #352]
   140005e1c:	a91963e8 	stp	x8, x24, [sp, #400]
   140005e20:	a9185be9 	stp	x9, x22, [sp, #384]
   140005e24:	940001f0 	bl	0x1400065e4
   140005e28:	90000081 	adrp	x1, 0x140015000
   140005e2c:	91149421 	add	x1, x1, #0x525
   140005e30:	90000084 	adrp	x4, 0x140015000
   140005e34:	9114c084 	add	x4, x4, #0x530
   140005e38:	528000e2 	mov	w2, #0x7                   	// #7
   140005e3c:	aa1303e3 	mov	x3, x19
   140005e40:	940001e9 	bl	0x1400065e4
   140005e44:	94000253 	bl	0x140006790
   140005e48:	a95d4ff4 	ldp	x20, x19, [sp, #464]
   140005e4c:	a95c57f6 	ldp	x22, x21, [sp, #448]
   140005e50:	a95b5ff8 	ldp	x24, x23, [sp, #432]
   140005e54:	a95a77fe 	ldp	x30, x29, [sp, #416]
   140005e58:	910783ff 	add	sp, sp, #0x1e0
   140005e5c:	d65f03c0 	ret
   140005e60:	d100c3ff 	sub	sp, sp, #0x30
   140005e64:	f9400009 	ldr	x9, [x0]
   140005e68:	aa0103e8 	mov	x8, x1
   140005e6c:	5280006b 	mov	w11, #0x3                   	// #3
   140005e70:	90000081 	adrp	x1, 0x140015000
   140005e74:	911f4021 	add	x1, x1, #0x7d0
   140005e78:	90000083 	adrp	x3, 0x140015000
   140005e7c:	911f2863 	add	x3, x3, #0x7ca
   140005e80:	9100212a 	add	x10, x9, #0x8
   140005e84:	a901fbe9 	stp	x9, x30, [sp, #24]
   140005e88:	90000089 	adrp	x9, 0x140015000
   140005e8c:	9117c129 	add	x9, x9, #0x5f0
   140005e90:	90000086 	adrp	x6, 0x140015000
   140005e94:	911fa0c6 	add	x6, x6, #0x7e8
   140005e98:	f90017ea 	str	x10, [sp, #40]
   140005e9c:	9100a3ea 	add	x10, sp, #0x28
   140005ea0:	90000087 	adrp	x7, 0x140015000
   140005ea4:	911f34e7 	add	x7, x7, #0x7cd
   140005ea8:	910063e5 	add	x5, sp, #0x18
   140005eac:	aa0803e0 	mov	x0, x8
   140005eb0:	528000e2 	mov	w2, #0x7                   	// #7
   140005eb4:	52800064 	mov	w4, #0x3                   	// #3
   140005eb8:	a900a7ea 	stp	x10, x9, [sp, #8]
   140005ebc:	f90003eb 	str	x11, [sp]
   140005ec0:	94000648 	bl	0x1400077e0
   140005ec4:	f94013fe 	ldr	x30, [sp, #32]
   140005ec8:	9100c3ff 	add	sp, sp, #0x30
   140005ecc:	d65f03c0 	ret
   140005ed0:	f9400008 	ldr	x8, [x0]
   140005ed4:	f9400100 	ldr	x0, [x8]
   140005ed8:	140008ef 	b	0x140008294
   140005edc:	d100c3ff 	sub	sp, sp, #0x30
   140005ee0:	f9400009 	ldr	x9, [x0]
   140005ee4:	aa0103e8 	mov	x8, x1
   140005ee8:	5280006b 	mov	w11, #0x3                   	// #3
   140005eec:	90000081 	adrp	x1, 0x140015000
   140005ef0:	911ef421 	add	x1, x1, #0x7bd
   140005ef4:	90000083 	adrp	x3, 0x140015000
   140005ef8:	911f2863 	add	x3, x3, #0x7ca
   140005efc:	9100212a 	add	x10, x9, #0x8
   140005f00:	a901fbe9 	stp	x9, x30, [sp, #24]
   140005f04:	90000089 	adrp	x9, 0x140015000
   140005f08:	9117c129 	add	x9, x9, #0x5f0
   140005f0c:	90000086 	adrp	x6, 0x140015000
   140005f10:	911fa0c6 	add	x6, x6, #0x7e8
   140005f14:	f90017ea 	str	x10, [sp, #40]
   140005f18:	9100a3ea 	add	x10, sp, #0x28
   140005f1c:	90000087 	adrp	x7, 0x140015000
   140005f20:	911f34e7 	add	x7, x7, #0x7cd
   140005f24:	910063e5 	add	x5, sp, #0x18
   140005f28:	aa0803e0 	mov	x0, x8
   140005f2c:	528001a2 	mov	w2, #0xd                   	// #13
   140005f30:	52800064 	mov	w4, #0x3                   	// #3
   140005f34:	a900a7ea 	stp	x10, x9, [sp, #8]
   140005f38:	f90003eb 	str	x11, [sp]
   140005f3c:	94000629 	bl	0x1400077e0
   140005f40:	f94013fe 	ldr	x30, [sp, #32]
   140005f44:	9100c3ff 	add	sp, sp, #0x30
   140005f48:	d65f03c0 	ret
   140005f4c:	f9400009 	ldr	x9, [x0]
   140005f50:	aa0103e8 	mov	x8, x1
   140005f54:	9000008a 	adrp	x10, 0x140015000
   140005f58:	911edd4a 	add	x10, x10, #0x7b7
   140005f5c:	9000008b 	adrp	x11, 0x140015000
   140005f60:	911ee96b 	add	x11, x11, #0x7ba
   140005f64:	b9400129 	ldr	w9, [x9]
   140005f68:	aa0803e0 	mov	x0, x8
   140005f6c:	52800062 	mov	w2, #0x3                   	// #3
   140005f70:	7100013f 	cmp	w9, #0x0
   140005f74:	9a8a0161 	csel	x1, x11, x10, eq	// eq = none
   140005f78:	140005f6 	b	0x140007750
   140005f7c:	d100c3ff 	sub	sp, sp, #0x30
   140005f80:	f9400009 	ldr	x9, [x0]
   140005f84:	aa0103e8 	mov	x8, x1
   140005f88:	5280006b 	mov	w11, #0x3                   	// #3
   140005f8c:	90000081 	adrp	x1, 0x140015000
   140005f90:	911f5c21 	add	x1, x1, #0x7d7
   140005f94:	90000083 	adrp	x3, 0x140015000
   140005f98:	911f2863 	add	x3, x3, #0x7ca
   140005f9c:	9100212a 	add	x10, x9, #0x8
   140005fa0:	a901fbe9 	stp	x9, x30, [sp, #24]
   140005fa4:	90000089 	adrp	x9, 0x140015000
   140005fa8:	9117c129 	add	x9, x9, #0x5f0
   140005fac:	90000086 	adrp	x6, 0x140015000
   140005fb0:	911fa0c6 	add	x6, x6, #0x7e8
   140005fb4:	f90017ea 	str	x10, [sp, #40]
   140005fb8:	9100a3ea 	add	x10, sp, #0x28
   140005fbc:	90000087 	adrp	x7, 0x140015000
   140005fc0:	911f34e7 	add	x7, x7, #0x7cd
   140005fc4:	910063e5 	add	x5, sp, #0x18
   140005fc8:	aa0803e0 	mov	x0, x8
   140005fcc:	52800162 	mov	w2, #0xb                   	// #11
   140005fd0:	52800064 	mov	w4, #0x3                   	// #3
   140005fd4:	a900a7ea 	stp	x10, x9, [sp, #8]
   140005fd8:	f90003eb 	str	x11, [sp]
   140005fdc:	94000601 	bl	0x1400077e0
   140005fe0:	f94013fe 	ldr	x30, [sp, #32]
   140005fe4:	9100c3ff 	add	sp, sp, #0x30
   140005fe8:	d65f03c0 	ret
   140005fec:	d100c3ff 	sub	sp, sp, #0x30
   140005ff0:	f9400009 	ldr	x9, [x0]
   140005ff4:	aa0103e8 	mov	x8, x1
   140005ff8:	5280008b 	mov	w11, #0x4                   	// #4
   140005ffc:	90000081 	adrp	x1, 0x140015000
   140006000:	911afc21 	add	x1, x1, #0x6bf
   140006004:	f0000063 	adrp	x3, 0x140015000
   140006008:	911b2863 	add	x3, x3, #0x6ca
   14000600c:	9100212a 	add	x10, x9, #0x8
   140006010:	a901fbe9 	stp	x9, x30, [sp, #24]
   140006014:	f0000069 	adrp	x9, 0x140015000
   140006018:	911b6129 	add	x9, x9, #0x6d8
   14000601c:	f0000066 	adrp	x6, 0x140015000
   140006020:	9117c0c6 	add	x6, x6, #0x5f0
   140006024:	f90017ea 	str	x10, [sp, #40]
   140006028:	9100a3ea 	add	x10, sp, #0x28
   14000602c:	f0000067 	adrp	x7, 0x140015000
   140006030:	911b3ce7 	add	x7, x7, #0x6cf
   140006034:	910063e5 	add	x5, sp, #0x18
   140006038:	aa0803e0 	mov	x0, x8
   14000603c:	52800162 	mov	w2, #0xb                   	// #11
   140006040:	528000a4 	mov	w4, #0x5                   	// #5
   140006044:	a900a7ea 	stp	x10, x9, [sp, #8]
   140006048:	f90003eb 	str	x11, [sp]
   14000604c:	940005e5 	bl	0x1400077e0
   140006050:	f94013fe 	ldr	x30, [sp, #32]
   140006054:	9100c3ff 	add	sp, sp, #0x30
   140006058:	d65f03c0 	ret
   14000605c:	d10283ff 	sub	sp, sp, #0xa0
   140006060:	f940000a 	ldr	x10, [x0]
   140006064:	9101a3e9 	add	x9, sp, #0x68
   140006068:	aa0103e8 	mov	x8, x1
   14000606c:	f0000061 	adrp	x1, 0x140015000
   140006070:	911ea021 	add	x1, x1, #0x7a8
   140006074:	f0000063 	adrp	x3, 0x140015000
   140006078:	911ca063 	add	x3, x3, #0x728
   14000607c:	9100214b 	add	x11, x10, #0x8
   140006080:	9100414c 	add	x12, x10, #0x10
   140006084:	f90037ea 	str	x10, [sp, #104]
   140006088:	910023e5 	add	x5, sp, #0x8
   14000608c:	aa0803e0 	mov	x0, x8
   140006090:	528001e2 	mov	w2, #0xf                   	// #15
   140006094:	528000c4 	mov	w4, #0x6                   	// #6
   140006098:	a90733eb 	stp	x11, x12, [sp, #112]
   14000609c:	9100614b 	add	x11, x10, #0x18
   1400060a0:	f000006c 	adrp	x12, 0x140015000
   1400060a4:	9117c18c 	add	x12, x12, #0x5f0
   1400060a8:	528000c6 	mov	w6, #0x6                   	// #6
   1400060ac:	f90043eb 	str	x11, [sp, #128]
   1400060b0:	9100814b 	add	x11, x10, #0x20
   1400060b4:	9100a14a 	add	x10, x10, #0x28
   1400060b8:	a900b3e9 	stp	x9, x12, [sp, #8]
   1400060bc:	9101c3e9 	add	x9, sp, #0x70
   1400060c0:	a908fbeb 	stp	x11, x30, [sp, #136]
   1400060c4:	f000006b 	adrp	x11, 0x140015000
   1400060c8:	911e216b 	add	x11, x11, #0x788
   1400060cc:	f9004fea 	str	x10, [sp, #152]
   1400060d0:	9101e3ea 	add	x10, sp, #0x78
   1400060d4:	a901b3e9 	stp	x9, x12, [sp, #24]
   1400060d8:	910203e9 	add	x9, sp, #0x80
   1400060dc:	a902b3ea 	stp	x10, x12, [sp, #40]
   1400060e0:	910223ea 	add	x10, sp, #0x88
   1400060e4:	a903afe9 	stp	x9, x11, [sp, #56]
   1400060e8:	910263e9 	add	x9, sp, #0x98
   1400060ec:	a904b3ea 	stp	x10, x12, [sp, #72]
   1400060f0:	a905b3e9 	stp	x9, x12, [sp, #88]
   1400060f4:	9400064b 	bl	0x140007a20
   1400060f8:	f9404bfe 	ldr	x30, [sp, #144]
   1400060fc:	910283ff 	add	sp, sp, #0xa0
   140006100:	d65f03c0 	ret
   140006104:	d10283ff 	sub	sp, sp, #0xa0
   140006108:	91002009 	add	x9, x0, #0x8
   14000610c:	9101000a 	add	x10, x0, #0x40
   140006110:	9101c00b 	add	x11, x0, #0x70
   140006114:	aa0103e8 	mov	x8, x1
   140006118:	f90037e0 	str	x0, [sp, #104]
   14000611c:	f0000061 	adrp	x1, 0x140015000
   140006120:	911ac021 	add	x1, x1, #0x6b0
   140006124:	a9072be9 	stp	x9, x10, [sp, #112]
   140006128:	91014009 	add	x9, x0, #0x50
   14000612c:	9101800a 	add	x10, x0, #0x60
   140006130:	f9004feb 	str	x11, [sp, #152]
   140006134:	9101c3eb 	add	x11, sp, #0x70
   140006138:	f0000063 	adrp	x3, 0x140015000
   14000613c:	91164063 	add	x3, x3, #0x590
   140006140:	f90043e9 	str	x9, [sp, #128]
   140006144:	9101a3e9 	add	x9, sp, #0x68
   140006148:	a908fbea 	stp	x10, x30, [sp, #136]
   14000614c:	f000006a 	adrp	x10, 0x140015000
   140006150:	9117c14a 	add	x10, x10, #0x5f0
   140006154:	910023e5 	add	x5, sp, #0x8
   140006158:	aa0803e0 	mov	x0, x8
   14000615c:	528001e2 	mov	w2, #0xf                   	// #15
   140006160:	528000c4 	mov	w4, #0x6                   	// #6
   140006164:	528000c6 	mov	w6, #0x6                   	// #6
   140006168:	a900abe9 	stp	x9, x10, [sp, #8]
   14000616c:	f0000069 	adrp	x9, 0x140015000
   140006170:	91184129 	add	x9, x9, #0x610
   140006174:	9101e3ea 	add	x10, sp, #0x78
   140006178:	a901a7eb 	stp	x11, x9, [sp, #24]
   14000617c:	f0000069 	adrp	x9, 0x140015000
   140006180:	9118c129 	add	x9, x9, #0x630
   140006184:	910203eb 	add	x11, sp, #0x80
   140006188:	a902a7ea 	stp	x10, x9, [sp, #40]
   14000618c:	f0000069 	adrp	x9, 0x140015000
   140006190:	91194129 	add	x9, x9, #0x650
   140006194:	910223ea 	add	x10, sp, #0x88
   140006198:	a903a7eb 	stp	x11, x9, [sp, #56]
   14000619c:	f0000069 	adrp	x9, 0x140015000
   1400061a0:	9119c129 	add	x9, x9, #0x670
   1400061a4:	910263eb 	add	x11, sp, #0x98
   1400061a8:	a904a7ea 	stp	x10, x9, [sp, #72]
   1400061ac:	f0000069 	adrp	x9, 0x140015000
   1400061b0:	911a4129 	add	x9, x9, #0x690
   1400061b4:	a905a7eb 	stp	x11, x9, [sp, #88]
   1400061b8:	9400061a 	bl	0x140007a20
   1400061bc:	f9404bfe 	ldr	x30, [sp, #144]
   1400061c0:	910283ff 	add	sp, sp, #0xa0
   1400061c4:	d65f03c0 	ret
   1400061c8:	f940001f 	ldr	xzr, [x0]
   1400061cc:	14000000 	b	0x1400061cc
   1400061d0:	d10143ff 	sub	sp, sp, #0x50
   1400061d4:	f9001bfe 	str	x30, [sp, #48]
   1400061d8:	a9044ff4 	stp	x20, x19, [sp, #64]
   1400061dc:	aa0103f3 	mov	x19, x1
   1400061e0:	aa0003f4 	mov	x20, x0
   1400061e4:	94000c6e 	bl	0x14000939c
   1400061e8:	370001a0 	tbnz	w0, #0, 0x14000621c
   1400061ec:	a9400660 	ldp	x0, x1, [x19]
   1400061f0:	f0000068 	adrp	x8, 0x140015000
   1400061f4:	91228108 	add	x8, x8, #0x8a0
   1400061f8:	52800029 	mov	w9, #0x1                   	// #1
   1400061fc:	f000006a 	adrp	x10, 0x140015000
   140006200:	9121c14a 	add	x10, x10, #0x870
   140006204:	910003e2 	mov	x2, sp
   140006208:	f90003ff 	str	xzr, [sp]
   14000620c:	a90127e8 	stp	x8, x9, [sp, #16]
   140006210:	a9027fea 	stp	x10, xzr, [sp, #32]
   140006214:	94000269 	bl	0x140006bb8
   140006218:	340000c0 	cbz	w0, 0x140006230
   14000621c:	a9444ff4 	ldp	x20, x19, [sp, #64]
   140006220:	52800020 	mov	w0, #0x1                   	// #1
   140006224:	f9401bfe 	ldr	x30, [sp, #48]
   140006228:	910143ff 	add	sp, sp, #0x50
   14000622c:	d65f03c0 	ret
   140006230:	91002280 	add	x0, x20, #0x8
   140006234:	aa1303e1 	mov	x1, x19
   140006238:	a9444ff4 	ldp	x20, x19, [sp, #64]
   14000623c:	f9401bfe 	ldr	x30, [sp, #48]
   140006240:	910143ff 	add	sp, sp, #0x50
   140006244:	14000c56 	b	0x14000939c
   140006248:	d29c12c0 	mov	x0, #0xe096                	// #57494
   14000624c:	f2a01480 	movk	x0, #0xa4, lsl #16
   140006250:	f2d0df20 	movk	x0, #0x86f9, lsl #32
   140006254:	f2e6dd40 	movk	x0, #0x36ea, lsl #48
   140006258:	d65f03c0 	ret
   14000625c:	d10243ff 	sub	sp, sp, #0x90
   140006260:	a9084ff4 	stp	x20, x19, [sp, #128]
   140006264:	52800182 	mov	w2, #0xc                   	// #12
   140006268:	a9404c34 	ldp	x20, x19, [x1]
   14000626c:	a90757f6 	stp	x22, x21, [sp, #112]
   140006270:	aa0003f5 	mov	x21, x0
   140006274:	f0000061 	adrp	x1, 0x140015000
   140006278:	91250021 	add	x1, x1, #0x940
   14000627c:	f90033fe 	str	x30, [sp, #96]
   140006280:	aa1403e0 	mov	x0, x20
   140006284:	f9400e68 	ldr	x8, [x19, #24]
   140006288:	d63f0100 	blr	x8
   14000628c:	36000100 	tbz	w0, #0, 0x1400062ac
   140006290:	52800036 	mov	w22, #0x1                   	// #1
   140006294:	2a1603e0 	mov	w0, w22
   140006298:	f94033fe 	ldr	x30, [sp, #96]
   14000629c:	a9484ff4 	ldp	x20, x19, [sp, #128]
   1400062a0:	a94757f6 	ldp	x22, x21, [sp, #112]
   1400062a4:	910243ff 	add	sp, sp, #0x90
   1400062a8:	d65f03c0 	ret
   1400062ac:	f9400aa8 	ldr	x8, [x21, #16]
   1400062b0:	b4000288 	cbz	x8, 0x140006300
   1400062b4:	f90037e8 	str	x8, [sp, #104]
   1400062b8:	9101a3e8 	add	x8, sp, #0x68
   1400062bc:	f0000009 	adrp	x9, 0x140009000
   1400062c0:	91231129 	add	x9, x9, #0x8c4
   1400062c4:	f000006a 	adrp	x10, 0x140015000
   1400062c8:	9125414a 	add	x10, x10, #0x950
   1400062cc:	52800036 	mov	w22, #0x1                   	// #1
   1400062d0:	9100c3e2 	add	x2, sp, #0x30
   1400062d4:	a90027e8 	stp	x8, x9, [sp]
   1400062d8:	52800048 	mov	w8, #0x2                   	// #2
   1400062dc:	910003e9 	mov	x9, sp
   1400062e0:	aa1403e0 	mov	x0, x20
   1400062e4:	aa1303e1 	mov	x1, x19
   1400062e8:	f9001bff 	str	xzr, [sp, #48]
   1400062ec:	a90423ea 	stp	x10, x8, [sp, #64]
   1400062f0:	a9055be9 	stp	x9, x22, [sp, #80]
   1400062f4:	94000231 	bl	0x140006bb8
   1400062f8:	3707fce0 	tbnz	w0, #0, 0x140006294
   1400062fc:	1400001d 	b	0x140006370
   140006300:	a94022b6 	ldp	x22, x8, [x21]
   140006304:	aa1603e0 	mov	x0, x22
   140006308:	f9400d08 	ldr	x8, [x8, #24]
   14000630c:	d63f0100 	blr	x8
   140006310:	d2835908 	mov	x8, #0x1ac8                	// #6856
   140006314:	f2b53f08 	movk	x8, #0xa9f8, lsl #16
   140006318:	f2cd8688 	movk	x8, #0x6c34, lsl #32
   14000631c:	f2f134e8 	movk	x8, #0x89a7, lsl #48
   140006320:	eb08001f 	cmp	x0, x8
   140006324:	54000261 	b.ne	0x140006370  // b.any
   140006328:	9101a3e8 	add	x8, sp, #0x68
   14000632c:	f0000009 	adrp	x9, 0x140009000
   140006330:	9122c129 	add	x9, x9, #0x8b0
   140006334:	f90037f6 	str	x22, [sp, #104]
   140006338:	f000006a 	adrp	x10, 0x140015000
   14000633c:	9125414a 	add	x10, x10, #0x950
   140006340:	52800036 	mov	w22, #0x1                   	// #1
   140006344:	9100c3e2 	add	x2, sp, #0x30
   140006348:	a90027e8 	stp	x8, x9, [sp]
   14000634c:	52800048 	mov	w8, #0x2                   	// #2
   140006350:	910003e9 	mov	x9, sp
   140006354:	aa1403e0 	mov	x0, x20
   140006358:	aa1303e1 	mov	x1, x19
   14000635c:	f9001bff 	str	xzr, [sp, #48]
   140006360:	a90423ea 	stp	x10, x8, [sp, #64]
   140006364:	a9055be9 	stp	x9, x22, [sp, #80]
   140006368:	94000214 	bl	0x140006bb8
   14000636c:	3707f940 	tbnz	w0, #0, 0x140006294
   140006370:	f9400ea8 	ldr	x8, [x21, #24]
   140006374:	f0000009 	adrp	x9, 0x140009000
   140006378:	9123e129 	add	x9, x9, #0x8f8
   14000637c:	f000000a 	adrp	x10, 0x140009000
   140006380:	9117914a 	add	x10, x10, #0x5e4
   140006384:	f000006b 	adrp	x11, 0x140015000
   140006388:	9124416b 	add	x11, x11, #0x910
   14000638c:	9100410c 	add	x12, x8, #0x10
   140006390:	a90027e8 	stp	x8, x9, [sp]
   140006394:	91005108 	add	x8, x8, #0x14
   140006398:	910003e9 	mov	x9, sp
   14000639c:	9100c3e2 	add	x2, sp, #0x30
   1400063a0:	aa1403e0 	mov	x0, x20
   1400063a4:	aa1303e1 	mov	x1, x19
   1400063a8:	a9022be8 	stp	x8, x10, [sp, #32]
   1400063ac:	52800068 	mov	w8, #0x3                   	// #3
   1400063b0:	a9012bec 	stp	x12, x10, [sp, #16]
   1400063b4:	f9001bff 	str	xzr, [sp, #48]
   1400063b8:	a90423eb 	stp	x11, x8, [sp, #64]
   1400063bc:	a90523e9 	stp	x9, x8, [sp, #80]
   1400063c0:	940001fe 	bl	0x140006bb8
   1400063c4:	f94033fe 	ldr	x30, [sp, #96]
   1400063c8:	a9484ff4 	ldp	x20, x19, [sp, #128]
   1400063cc:	a94757f6 	ldp	x22, x21, [sp, #112]
   1400063d0:	910243ff 	add	sp, sp, #0x90
   1400063d4:	d65f03c0 	ret
   1400063d8:	a9bf07e0 	stp	x0, x1, [sp, #-16]!
   1400063dc:	910003e0 	mov	x0, sp
   1400063e0:	aa0203e1 	mov	x1, x2
   1400063e4:	94000002 	bl	0x1400063ec
   1400063e8:	d4200020 	brk	#0x1
   1400063ec:	d10103ff 	sub	sp, sp, #0x40
   1400063f0:	f0000008 	adrp	x8, 0x140009000
   1400063f4:	9123e108 	add	x8, x8, #0x8f8
   1400063f8:	f0000069 	adrp	x9, 0x140015000
   1400063fc:	91264129 	add	x9, x9, #0x990
   140006400:	9100c3ea 	add	x10, sp, #0x30
   140006404:	f90003ff 	str	xzr, [sp]
   140006408:	a90323e0 	stp	x0, x8, [sp, #48]
   14000640c:	52800028 	mov	w8, #0x1                   	// #1
   140006410:	910003e0 	mov	x0, sp
   140006414:	a90123e9 	stp	x9, x8, [sp, #16]
   140006418:	a90223ea 	stp	x10, x8, [sp, #32]
   14000641c:	94000fce 	bl	0x14000a354
   140006420:	d4200020 	brk	#0x1
   140006424:	d102c3ff 	sub	sp, sp, #0xb0
   140006428:	a90767fa 	stp	x26, x25, [sp, #112]
   14000642c:	aa1f03fa 	mov	x26, xzr
   140006430:	a9085ff8 	stp	x24, x23, [sp, #128]
   140006434:	52800028 	mov	w8, #0x1                   	// #1
   140006438:	a940e019 	ldp	x25, x24, [x0, #8]
   14000643c:	a9066ffc 	stp	x28, x27, [sp, #96]
   140006440:	aa1f03fb 	mov	x27, xzr
   140006444:	a90957f6 	stp	x22, x21, [sp, #144]
   140006448:	2a1f03fc 	mov	w28, wzr
   14000644c:	a90a4ff4 	stp	x20, x19, [sp, #160]
   140006450:	aa0203f3 	mov	x19, x2
   140006454:	aa0103f4 	mov	x20, x1
   140006458:	52800157 	mov	w23, #0xa                   	// #10
   14000645c:	f9400015 	ldr	x21, [x0]
   140006460:	a90577fe 	stp	x30, x29, [sp, #80]
   140006464:	a9008be1 	stp	x1, x2, [sp, #8]
   140006468:	a9018bff 	stp	xzr, x2, [sp, #24]
   14000646c:	f90017e8 	str	x8, [sp, #40]
   140006470:	b90033f7 	str	w23, [sp, #48]
   140006474:	1400000b 	b	0x1400064a0
   140006478:	8b020028 	add	x8, x1, x2
   14000647c:	385ff108 	ldurb	w8, [x8, #-1]
   140006480:	7100291f 	cmp	w8, #0xa
   140006484:	1a9f17e8 	cset	w8, eq	// eq = none
   140006488:	39000308 	strb	w8, [x24]
   14000648c:	aa1503e0 	mov	x0, x21
   140006490:	f9400f28 	ldr	x8, [x25, #24]
   140006494:	d63f0100 	blr	x8
   140006498:	aa1d03fa 	mov	x26, x29
   14000649c:	37000920 	tbnz	w0, #0, 0x1400065c0
   1400064a0:	350008dc 	cbnz	w28, 0x1400065b8
   1400064a4:	eb13037f 	cmp	x27, x19
   1400064a8:	54000608 	b.hi	0x140006568  // b.pmore
   1400064ac:	aa1b03fc 	mov	x28, x27
   1400064b0:	cb1b0262 	sub	x2, x19, x27
   1400064b4:	8b1b0288 	add	x8, x20, x27
   1400064b8:	f100405f 	cmp	x2, #0x10
   1400064bc:	540001c2 	b.cs	0x1400064f4  // b.hs, b.nlast
   1400064c0:	aa1f03e1 	mov	x1, xzr
   1400064c4:	b4000242 	cbz	x2, 0x14000650c
   1400064c8:	38616909 	ldrb	w9, [x8, x1]
   1400064cc:	7100293f 	cmp	w9, #0xa
   1400064d0:	54000260 	b.eq	0x14000651c  // b.none
   1400064d4:	91000421 	add	x1, x1, #0x1
   1400064d8:	eb01005f 	cmp	x2, x1
   1400064dc:	54ffff61 	b.ne	0x1400064c8  // b.any
   1400064e0:	aa1f03e0 	mov	x0, xzr
   1400064e4:	aa0203e1 	mov	x1, x2
   1400064e8:	f100041f 	cmp	x0, #0x1
   1400064ec:	540001e0 	b.eq	0x140006528  // b.none
   1400064f0:	1400001d 	b	0x140006564
   1400064f4:	52800140 	mov	w0, #0xa                   	// #10
   1400064f8:	aa0803e1 	mov	x1, x8
   1400064fc:	940007a2 	bl	0x140008384
   140006500:	f100041f 	cmp	x0, #0x1
   140006504:	54000120 	b.eq	0x140006528  // b.none
   140006508:	14000017 	b	0x140006564
   14000650c:	aa1f03e0 	mov	x0, xzr
   140006510:	f100041f 	cmp	x0, #0x1
   140006514:	540000a0 	b.eq	0x140006528  // b.none
   140006518:	14000013 	b	0x140006564
   14000651c:	52800020 	mov	w0, #0x1                   	// #1
   140006520:	f100041f 	cmp	x0, #0x1
   140006524:	54000201 	b.ne	0x140006564  // b.any
   140006528:	8b010388 	add	x8, x28, x1
   14000652c:	b100051b 	adds	x27, x8, #0x1
   140006530:	54fffba0 	b.eq	0x1400064a4  // b.none
   140006534:	eb13037f 	cmp	x27, x19
   140006538:	54fffb68 	b.hi	0x1400064a4  // b.pmore
   14000653c:	8b010388 	add	x8, x28, x1
   140006540:	38686a88 	ldrb	w8, [x20, x8]
   140006544:	6b17011f 	cmp	w8, w23
   140006548:	54fffae1 	b.ne	0x1400064a4  // b.any
   14000654c:	2a1f03fc 	mov	w28, wzr
   140006550:	aa1b03fd 	mov	x29, x27
   140006554:	aa1b03f6 	mov	x22, x27
   140006558:	39400308 	ldrb	w8, [x24]
   14000655c:	35000148 	cbnz	w8, 0x140006584
   140006560:	14000010 	b	0x1400065a0
   140006564:	aa1303fb 	mov	x27, x19
   140006568:	eb13035f 	cmp	x26, x19
   14000656c:	54000260 	b.eq	0x1400065b8  // b.none
   140006570:	5280003c 	mov	w28, #0x1                   	// #1
   140006574:	aa1a03fd 	mov	x29, x26
   140006578:	aa1303f6 	mov	x22, x19
   14000657c:	39400308 	ldrb	w8, [x24]
   140006580:	34000108 	cbz	w8, 0x1400065a0
   140006584:	f9400f28 	ldr	x8, [x25, #24]
   140006588:	aa1503e0 	mov	x0, x21
   14000658c:	f0000061 	adrp	x1, 0x140015000
   140006590:	912ba021 	add	x1, x1, #0xae8
   140006594:	52800082 	mov	w2, #0x4                   	// #4
   140006598:	d63f0100 	blr	x8
   14000659c:	35000120 	cbnz	w0, 0x1400065c0
   1400065a0:	cb1a02c2 	sub	x2, x22, x26
   1400065a4:	8b1a0281 	add	x1, x20, x26
   1400065a8:	eb1a02df 	cmp	x22, x26
   1400065ac:	54fff661 	b.ne	0x140006478  // b.any
   1400065b0:	2a1f03e8 	mov	w8, wzr
   1400065b4:	17ffffb5 	b	0x140006488
   1400065b8:	2a1f03e0 	mov	w0, wzr
   1400065bc:	14000002 	b	0x1400065c4
   1400065c0:	52800020 	mov	w0, #0x1                   	// #1
   1400065c4:	a94a4ff4 	ldp	x20, x19, [sp, #160]
   1400065c8:	a94957f6 	ldp	x22, x21, [sp, #144]
   1400065cc:	a9485ff8 	ldp	x24, x23, [sp, #128]
   1400065d0:	a94767fa 	ldp	x26, x25, [sp, #112]
   1400065d4:	a9466ffc 	ldp	x28, x27, [sp, #96]
   1400065d8:	a94577fe 	ldp	x30, x29, [sp, #80]
   1400065dc:	9102c3ff 	add	sp, sp, #0xb0
   1400065e0:	d65f03c0 	ret
   1400065e4:	d10283ff 	sub	sp, sp, #0xa0
   1400065e8:	a90667fe 	stp	x30, x25, [sp, #96]
   1400065ec:	39402009 	ldrb	w9, [x0, #8]
   1400065f0:	a9094ff4 	stp	x20, x19, [sp, #144]
   1400065f4:	aa0003f3 	mov	x19, x0
   1400065f8:	52800039 	mov	w25, #0x1                   	// #1
   1400065fc:	52800028 	mov	w8, #0x1                   	// #1
   140006600:	a9075ff8 	stp	x24, x23, [sp, #112]
   140006604:	a90857f6 	stp	x22, x21, [sp, #128]
   140006608:	35000a29 	cbnz	w9, 0x14000674c
   14000660c:	f9400276 	ldr	x22, [x19]
   140006610:	aa0403f5 	mov	x21, x4
   140006614:	aa0303f4 	mov	x20, x3
   140006618:	aa0203f7 	mov	x23, x2
   14000661c:	aa0103f8 	mov	x24, x1
   140006620:	39402669 	ldrb	w9, [x19, #9]
   140006624:	b94032c8 	ldr	w8, [x22, #48]
   140006628:	371003e8 	tbnz	w8, #2, 0x1400066a4
   14000662c:	a9402ec0 	ldp	x0, x11, [x22]
   140006630:	f0000068 	adrp	x8, 0x140015000
   140006634:	912bc508 	add	x8, x8, #0xaf1
   140006638:	f000006a 	adrp	x10, 0x140015000
   14000663c:	912bcd4a 	add	x10, x10, #0xaf3
   140006640:	7100013f 	cmp	w9, #0x0
   140006644:	9a880141 	csel	x1, x10, x8, eq	// eq = none
   140006648:	52800048 	mov	w8, #0x2                   	// #2
   14000664c:	9a881502 	cinc	x2, x8, eq	// eq = none
   140006650:	f9400d68 	ldr	x8, [x11, #24]
   140006654:	d63f0100 	blr	x8
   140006658:	37000780 	tbnz	w0, #0, 0x140006748
   14000665c:	a94022c0 	ldp	x0, x8, [x22]
   140006660:	aa1803e1 	mov	x1, x24
   140006664:	aa1703e2 	mov	x2, x23
   140006668:	f9400d08 	ldr	x8, [x8, #24]
   14000666c:	d63f0100 	blr	x8
   140006670:	370006c0 	tbnz	w0, #0, 0x140006748
   140006674:	a94022c0 	ldp	x0, x8, [x22]
   140006678:	f0000061 	adrp	x1, 0x140015000
   14000667c:	912a4021 	add	x1, x1, #0xa90
   140006680:	52800042 	mov	w2, #0x2                   	// #2
   140006684:	f9400d08 	ldr	x8, [x8, #24]
   140006688:	d63f0100 	blr	x8
   14000668c:	370005e0 	tbnz	w0, #0, 0x140006748
   140006690:	f9400ea8 	ldr	x8, [x21, #24]
   140006694:	aa1403e0 	mov	x0, x20
   140006698:	aa1603e1 	mov	x1, x22
   14000669c:	d63f0100 	blr	x8
   1400066a0:	1400003a 	b	0x140006788
   1400066a4:	35000129 	cbnz	w9, 0x1400066c8
   1400066a8:	a94022c0 	ldp	x0, x8, [x22]
   1400066ac:	f0000061 	adrp	x1, 0x140015000
   1400066b0:	912bb021 	add	x1, x1, #0xaec
   1400066b4:	52800062 	mov	w2, #0x3                   	// #3
   1400066b8:	f9400d08 	ldr	x8, [x8, #24]
   1400066bc:	d63f0100 	blr	x8
   1400066c0:	37000440 	tbnz	w0, #0, 0x140006748
   1400066c4:	b94032c8 	ldr	w8, [x22, #48]
   1400066c8:	a9402eca 	ldp	x10, x11, [x22]
   1400066cc:	91007fe9 	add	x9, sp, #0x1f
   1400066d0:	910003e0 	mov	x0, sp
   1400066d4:	b94036cc 	ldr	w12, [x22, #52]
   1400066d8:	aa1803e1 	mov	x1, x24
   1400066dc:	3940e2cd 	ldrb	w13, [x22, #56]
   1400066e0:	aa1703e2 	mov	x2, x23
   1400066e4:	f90003ea 	str	x10, [sp]
   1400066e8:	a900a7eb 	stp	x11, x9, [sp, #8]
   1400066ec:	52800029 	mov	w9, #0x1                   	// #1
   1400066f0:	290a33e8 	stp	w8, w12, [sp, #80]
   1400066f4:	910003e8 	mov	x8, sp
   1400066f8:	390163ed 	strb	w13, [sp, #88]
   1400066fc:	ad4086c0 	ldp	q0, q1, [x22, #16]
   140006700:	39007fe9 	strb	w9, [sp, #31]
   140006704:	f0000069 	adrp	x9, 0x140015000
   140006708:	912ae129 	add	x9, x9, #0xab8
   14000670c:	a90227e8 	stp	x8, x9, [sp, #32]
   140006710:	ad0187e0 	stp	q0, q1, [sp, #48]
   140006714:	97ffff44 	bl	0x140006424
   140006718:	37000180 	tbnz	w0, #0, 0x140006748
   14000671c:	f0000061 	adrp	x1, 0x140015000
   140006720:	912a4021 	add	x1, x1, #0xa90
   140006724:	910003e0 	mov	x0, sp
   140006728:	52800042 	mov	w2, #0x2                   	// #2
   14000672c:	97ffff3e 	bl	0x140006424
   140006730:	350000c0 	cbnz	w0, 0x140006748
   140006734:	f9400ea8 	ldr	x8, [x21, #24]
   140006738:	910083e1 	add	x1, sp, #0x20
   14000673c:	aa1403e0 	mov	x0, x20
   140006740:	d63f0100 	blr	x8
   140006744:	36000160 	tbz	w0, #0, 0x140006770
   140006748:	52800028 	mov	w8, #0x1                   	// #1
   14000674c:	aa1303e0 	mov	x0, x19
   140006750:	39002268 	strb	w8, [x19, #8]
   140006754:	39002679 	strb	w25, [x19, #9]
   140006758:	a9494ff4 	ldp	x20, x19, [sp, #144]
   14000675c:	a94857f6 	ldp	x22, x21, [sp, #128]
   140006760:	a9475ff8 	ldp	x24, x23, [sp, #112]
   140006764:	a94667fe 	ldp	x30, x25, [sp, #96]
   140006768:	910283ff 	add	sp, sp, #0xa0
   14000676c:	d65f03c0 	ret
   140006770:	a94223e0 	ldp	x0, x8, [sp, #32]
   140006774:	f0000061 	adrp	x1, 0x140015000
   140006778:	912bbc21 	add	x1, x1, #0xaef
   14000677c:	52800042 	mov	w2, #0x2                   	// #2
   140006780:	f9400d08 	ldr	x8, [x8, #24]
   140006784:	d63f0100 	blr	x8
   140006788:	2a0003e8 	mov	w8, w0
   14000678c:	17fffff0 	b	0x14000674c
   140006790:	a9bf4ffe 	stp	x30, x19, [sp, #-16]!
   140006794:	aa0003f3 	mov	x19, x0
   140006798:	39402408 	ldrb	w8, [x0, #9]
   14000679c:	39402000 	ldrb	w0, [x0, #8]
   1400067a0:	34000268 	cbz	w8, 0x1400067ec
   1400067a4:	34000060 	cbz	w0, 0x1400067b0
   1400067a8:	52800020 	mov	w0, #0x1                   	// #1
   1400067ac:	1400000f 	b	0x1400067e8
   1400067b0:	f9400268 	ldr	x8, [x19]
   1400067b4:	3940c109 	ldrb	w9, [x8, #48]
   1400067b8:	371000c9 	tbnz	w9, #2, 0x1400067d0
   1400067bc:	a9402500 	ldp	x0, x9, [x8]
   1400067c0:	f0000061 	adrp	x1, 0x140015000
   1400067c4:	912bdc21 	add	x1, x1, #0xaf7
   1400067c8:	52800042 	mov	w2, #0x2                   	// #2
   1400067cc:	14000005 	b	0x1400067e0
   1400067d0:	a9402500 	ldp	x0, x9, [x8]
   1400067d4:	f0000061 	adrp	x1, 0x140015000
   1400067d8:	912bd821 	add	x1, x1, #0xaf6
   1400067dc:	52800022 	mov	w2, #0x1                   	// #1
   1400067e0:	f9400d28 	ldr	x8, [x9, #24]
   1400067e4:	d63f0100 	blr	x8
   1400067e8:	39002260 	strb	w0, [x19, #8]
   1400067ec:	7100001f 	cmp	w0, #0x0
   1400067f0:	1a9f07e0 	cset	w0, ne	// ne = any
   1400067f4:	a8c14ffe 	ldp	x30, x19, [sp], #16
   1400067f8:	d65f03c0 	ret
   1400067fc:	d10283ff 	sub	sp, sp, #0xa0
   140006800:	a9094ff4 	stp	x20, x19, [sp, #144]
   140006804:	aa0003f3 	mov	x19, x0
   140006808:	39404008 	ldrb	w8, [x0, #16]
   14000680c:	f90033fe 	str	x30, [sp, #96]
   140006810:	a9075ff8 	stp	x24, x23, [sp, #112]
   140006814:	a90857f6 	stp	x22, x21, [sp, #128]
   140006818:	340001a8 	cbz	w8, 0x14000684c
   14000681c:	f9400278 	ldr	x24, [x19]
   140006820:	52800037 	mov	w23, #0x1                   	// #1
   140006824:	91000708 	add	x8, x24, #0x1
   140006828:	aa1303e0 	mov	x0, x19
   14000682c:	39004277 	strb	w23, [x19, #16]
   140006830:	f94033fe 	ldr	x30, [sp, #96]
   140006834:	a94857f6 	ldp	x22, x21, [sp, #128]
   140006838:	f9000268 	str	x8, [x19]
   14000683c:	a9494ff4 	ldp	x20, x19, [sp, #144]
   140006840:	a9475ff8 	ldp	x24, x23, [sp, #112]
   140006844:	910283ff 	add	sp, sp, #0xa0
   140006848:	d65f03c0 	ret
   14000684c:	a9405a78 	ldp	x24, x22, [x19]
   140006850:	aa0203f5 	mov	x21, x2
   140006854:	aa0103f4 	mov	x20, x1
   140006858:	b94032c8 	ldr	w8, [x22, #48]
   14000685c:	37100268 	tbnz	w8, #2, 0x1400068a8
   140006860:	a9402ac0 	ldp	x0, x10, [x22]
   140006864:	f0000068 	adrp	x8, 0x140015000
   140006868:	912bc508 	add	x8, x8, #0xaf1
   14000686c:	f0000069 	adrp	x9, 0x140015000
   140006870:	912bed29 	add	x9, x9, #0xafb
   140006874:	f100031f 	cmp	x24, #0x0
   140006878:	52800037 	mov	w23, #0x1                   	// #1
   14000687c:	9a880121 	csel	x1, x9, x8, eq	// eq = none
   140006880:	9a9706e2 	cinc	x2, x23, ne	// ne = any
   140006884:	f9400d48 	ldr	x8, [x10, #24]
   140006888:	d63f0100 	blr	x8
   14000688c:	3707fcc0 	tbnz	w0, #0, 0x140006824
   140006890:	f9400ea8 	ldr	x8, [x21, #24]
   140006894:	aa1403e0 	mov	x0, x20
   140006898:	aa1603e1 	mov	x1, x22
   14000689c:	d63f0100 	blr	x8
   1400068a0:	2a0003f7 	mov	w23, w0
   1400068a4:	17ffffe0 	b	0x140006824
   1400068a8:	b5000178 	cbnz	x24, 0x1400068d4
   1400068ac:	a94022c0 	ldp	x0, x8, [x22]
   1400068b0:	f0000061 	adrp	x1, 0x140015000
   1400068b4:	912be421 	add	x1, x1, #0xaf9
   1400068b8:	52800042 	mov	w2, #0x2                   	// #2
   1400068bc:	f9400d08 	ldr	x8, [x8, #24]
   1400068c0:	d63f0100 	blr	x8
   1400068c4:	36000060 	tbz	w0, #0, 0x1400068d0
   1400068c8:	aa1f03f8 	mov	x24, xzr
   1400068cc:	17ffffd5 	b	0x140006820
   1400068d0:	b94032c8 	ldr	w8, [x22, #48]
   1400068d4:	a94032cb 	ldp	x11, x12, [x22]
   1400068d8:	52800029 	mov	w9, #0x1                   	// #1
   1400068dc:	9101bfea 	add	x10, sp, #0x6f
   1400068e0:	910083e1 	add	x1, sp, #0x20
   1400068e4:	aa1403e0 	mov	x0, x20
   1400068e8:	3901bfe9 	strb	w9, [sp, #111]
   1400068ec:	b94036c9 	ldr	w9, [x22, #52]
   1400068f0:	a9012bec 	stp	x12, x10, [sp, #16]
   1400068f4:	3940e2ca 	ldrb	w10, [x22, #56]
   1400068f8:	f90007eb 	str	x11, [sp, #8]
   1400068fc:	290a27e8 	stp	w8, w9, [sp, #80]
   140006900:	910023e8 	add	x8, sp, #0x8
   140006904:	390163ea 	strb	w10, [sp, #88]
   140006908:	f0000069 	adrp	x9, 0x140015000
   14000690c:	912ae129 	add	x9, x9, #0xab8
   140006910:	f9400eaa 	ldr	x10, [x21, #24]
   140006914:	ad4086c0 	ldp	q0, q1, [x22, #16]
   140006918:	a90227e8 	stp	x8, x9, [sp, #32]
   14000691c:	ad0187e0 	stp	q0, q1, [sp, #48]
   140006920:	d63f0140 	blr	x10
   140006924:	3707f7e0 	tbnz	w0, #0, 0x140006820
   140006928:	a94223e0 	ldp	x0, x8, [sp, #32]
   14000692c:	f0000061 	adrp	x1, 0x140015000
   140006930:	912bbc21 	add	x1, x1, #0xaef
   140006934:	52800042 	mov	w2, #0x2                   	// #2
   140006938:	f9400d08 	ldr	x8, [x8, #24]
   14000693c:	d63f0100 	blr	x8
   140006940:	2a0003f7 	mov	w23, w0
   140006944:	17ffffb8 	b	0x140006824
   140006948:	f81f0ffe 	str	x30, [sp, #-16]!
   14000694c:	7102003f 	cmp	w1, #0x80
   140006950:	b9000fff 	str	wzr, [sp, #12]
   140006954:	540000e2 	b.cs	0x140006970  // b.hs, b.nlast
   140006958:	52800022 	mov	w2, #0x1                   	// #1
   14000695c:	390033e1 	strb	w1, [sp, #12]
   140006960:	910033e1 	add	x1, sp, #0xc
   140006964:	97fffeb0 	bl	0x140006424
   140006968:	f84107fe 	ldr	x30, [sp], #16
   14000696c:	d65f03c0 	ret
   140006970:	7120003f 	cmp	w1, #0x800
   140006974:	54000182 	b.cs	0x1400069a4  // b.hs, b.nlast
   140006978:	53067c28 	lsr	w8, w1, #6
   14000697c:	52801009 	mov	w9, #0x80                  	// #128
   140006980:	321a0508 	orr	w8, w8, #0xc0
   140006984:	33001429 	bfxil	w9, w1, #0, #6
   140006988:	52800042 	mov	w2, #0x2                   	// #2
   14000698c:	390033e8 	strb	w8, [sp, #12]
   140006990:	390037e9 	strb	w9, [sp, #13]
   140006994:	910033e1 	add	x1, sp, #0xc
   140006998:	97fffea3 	bl	0x140006424
   14000699c:	f84107fe 	ldr	x30, [sp], #16
   1400069a0:	d65f03c0 	ret
   1400069a4:	7140403f 	cmp	w1, #0x10, lsl #12
   1400069a8:	540001e2 	b.cs	0x1400069e4  // b.hs, b.nlast
   1400069ac:	530c7c28 	lsr	w8, w1, #12
   1400069b0:	52801009 	mov	w9, #0x80                  	// #128
   1400069b4:	5280100a 	mov	w10, #0x80                  	// #128
   1400069b8:	321b0908 	orr	w8, w8, #0xe0
   1400069bc:	33062c29 	bfxil	w9, w1, #6, #6
   1400069c0:	3300142a 	bfxil	w10, w1, #0, #6
   1400069c4:	52800062 	mov	w2, #0x3                   	// #3
   1400069c8:	390033e8 	strb	w8, [sp, #12]
   1400069cc:	390037e9 	strb	w9, [sp, #13]
   1400069d0:	39003bea 	strb	w10, [sp, #14]
   1400069d4:	910033e1 	add	x1, sp, #0xc
   1400069d8:	97fffe93 	bl	0x140006424
   1400069dc:	f84107fe 	ldr	x30, [sp], #16
   1400069e0:	d65f03c0 	ret
   1400069e4:	52801e08 	mov	w8, #0xf0                  	// #240
   1400069e8:	52801009 	mov	w9, #0x80                  	// #128
   1400069ec:	5280100a 	mov	w10, #0x80                  	// #128
   1400069f0:	5280100b 	mov	w11, #0x80                  	// #128
   1400069f4:	33125028 	bfxil	w8, w1, #18, #3
   1400069f8:	330c4429 	bfxil	w9, w1, #12, #6
   1400069fc:	33062c2a 	bfxil	w10, w1, #6, #6
   140006a00:	3300142b 	bfxil	w11, w1, #0, #6
   140006a04:	52800082 	mov	w2, #0x4                   	// #4
   140006a08:	390033e8 	strb	w8, [sp, #12]
   140006a0c:	390037e9 	strb	w9, [sp, #13]
   140006a10:	39003bea 	strb	w10, [sp, #14]
   140006a14:	39003feb 	strb	w11, [sp, #15]
   140006a18:	910033e1 	add	x1, sp, #0xc
   140006a1c:	97fffe82 	bl	0x140006424
   140006a20:	f84107fe 	ldr	x30, [sp], #16
   140006a24:	d65f03c0 	ret
   140006a28:	d10103ff 	sub	sp, sp, #0x40
   140006a2c:	ad400420 	ldp	q0, q1, [x1]
   140006a30:	a90303fe 	stp	x30, x0, [sp, #48]
   140006a34:	9100e3e0 	add	x0, sp, #0x38
   140006a38:	910003e2 	mov	x2, sp
   140006a3c:	3dc00822 	ldr	q2, [x1, #32]
   140006a40:	f0000061 	adrp	x1, 0x140015000
   140006a44:	91300021 	add	x1, x1, #0xc00
   140006a48:	ad0007e0 	stp	q0, q1, [sp]
   140006a4c:	3d800be2 	str	q2, [sp, #32]
   140006a50:	9400005a 	bl	0x140006bb8
   140006a54:	f9401bfe 	ldr	x30, [sp, #48]
   140006a58:	910103ff 	add	sp, sp, #0x40
   140006a5c:	d65f03c0 	ret
   140006a60:	f9400000 	ldr	x0, [x0]
   140006a64:	17fffe70 	b	0x140006424
   140006a68:	f81f0ffe 	str	x30, [sp, #-16]!
   140006a6c:	f9400000 	ldr	x0, [x0]
   140006a70:	7102003f 	cmp	w1, #0x80
   140006a74:	b9000fff 	str	wzr, [sp, #12]
   140006a78:	540000e2 	b.cs	0x140006a94  // b.hs, b.nlast
   140006a7c:	52800022 	mov	w2, #0x1                   	// #1
   140006a80:	390033e1 	strb	w1, [sp, #12]
   140006a84:	910033e1 	add	x1, sp, #0xc
   140006a88:	97fffe67 	bl	0x140006424
   140006a8c:	f84107fe 	ldr	x30, [sp], #16
   140006a90:	d65f03c0 	ret
   140006a94:	7120003f 	cmp	w1, #0x800
   140006a98:	54000182 	b.cs	0x140006ac8  // b.hs, b.nlast
   140006a9c:	53067c28 	lsr	w8, w1, #6
   140006aa0:	52801009 	mov	w9, #0x80                  	// #128
   140006aa4:	321a0508 	orr	w8, w8, #0xc0
   140006aa8:	33001429 	bfxil	w9, w1, #0, #6
   140006aac:	52800042 	mov	w2, #0x2                   	// #2
   140006ab0:	390033e8 	strb	w8, [sp, #12]
   140006ab4:	390037e9 	strb	w9, [sp, #13]
   140006ab8:	910033e1 	add	x1, sp, #0xc
   140006abc:	97fffe5a 	bl	0x140006424
   140006ac0:	f84107fe 	ldr	x30, [sp], #16
   140006ac4:	d65f03c0 	ret
   140006ac8:	7140403f 	cmp	w1, #0x10, lsl #12
   140006acc:	540001e2 	b.cs	0x140006b08  // b.hs, b.nlast
   140006ad0:	530c7c28 	lsr	w8, w1, #12
   140006ad4:	52801009 	mov	w9, #0x80                  	// #128
   140006ad8:	5280100a 	mov	w10, #0x80                  	// #128
   140006adc:	321b0908 	orr	w8, w8, #0xe0
   140006ae0:	33062c29 	bfxil	w9, w1, #6, #6
   140006ae4:	3300142a 	bfxil	w10, w1, #0, #6
   140006ae8:	52800062 	mov	w2, #0x3                   	// #3
   140006aec:	390033e8 	strb	w8, [sp, #12]
   140006af0:	390037e9 	strb	w9, [sp, #13]
   140006af4:	39003bea 	strb	w10, [sp, #14]
   140006af8:	910033e1 	add	x1, sp, #0xc
   140006afc:	97fffe4a 	bl	0x140006424
   140006b00:	f84107fe 	ldr	x30, [sp], #16
   140006b04:	d65f03c0 	ret
   140006b08:	52801e08 	mov	w8, #0xf0                  	// #240
   140006b0c:	52801009 	mov	w9, #0x80                  	// #128
   140006b10:	5280100a 	mov	w10, #0x80                  	// #128
   140006b14:	5280100b 	mov	w11, #0x80                  	// #128
   140006b18:	33125028 	bfxil	w8, w1, #18, #3
   140006b1c:	330c4429 	bfxil	w9, w1, #12, #6
   140006b20:	33062c2a 	bfxil	w10, w1, #6, #6
   140006b24:	3300142b 	bfxil	w11, w1, #0, #6
   140006b28:	52800082 	mov	w2, #0x4                   	// #4
   140006b2c:	390033e8 	strb	w8, [sp, #12]
   140006b30:	390037e9 	strb	w9, [sp, #13]
   140006b34:	39003bea 	strb	w10, [sp, #14]
   140006b38:	39003feb 	strb	w11, [sp, #15]
   140006b3c:	910033e1 	add	x1, sp, #0xc
   140006b40:	97fffe39 	bl	0x140006424
   140006b44:	f84107fe 	ldr	x30, [sp], #16
   140006b48:	d65f03c0 	ret
   140006b4c:	d10103ff 	sub	sp, sp, #0x40
   140006b50:	ad400420 	ldp	q0, q1, [x1]
   140006b54:	910003e2 	mov	x2, sp
   140006b58:	f9400008 	ldr	x8, [x0]
   140006b5c:	9100e3e0 	add	x0, sp, #0x38
   140006b60:	3dc00822 	ldr	q2, [x1, #32]
   140006b64:	f0000061 	adrp	x1, 0x140015000
   140006b68:	91300021 	add	x1, x1, #0xc00
   140006b6c:	ad0007e0 	stp	q0, q1, [sp]
   140006b70:	a90323fe 	stp	x30, x8, [sp, #48]
   140006b74:	3d800be2 	str	q2, [sp, #32]
   140006b78:	94000010 	bl	0x140006bb8
   140006b7c:	f9401bfe 	ldr	x30, [sp, #48]
   140006b80:	910103ff 	add	sp, sp, #0x40
   140006b84:	d65f03c0 	ret
   140006b88:	d10103ff 	sub	sp, sp, #0x40
   140006b8c:	ad400400 	ldp	q0, q1, [x0]
   140006b90:	910003e2 	mov	x2, sp
   140006b94:	f9001bfe 	str	x30, [sp, #48]
   140006b98:	3dc00802 	ldr	q2, [x0, #32]
   140006b9c:	ad0007e0 	stp	q0, q1, [sp]
   140006ba0:	a9400420 	ldp	x0, x1, [x1]
   140006ba4:	3d800be2 	str	q2, [sp, #32]
   140006ba8:	94000004 	bl	0x140006bb8
   140006bac:	f9401bfe 	ldr	x30, [sp, #48]
   140006bb0:	910103ff 	add	sp, sp, #0x40
   140006bb4:	d65f03c0 	ret
   140006bb8:	d10203ff 	sub	sp, sp, #0x80
   140006bbc:	f0000068 	adrp	x8, 0x140015000
   140006bc0:	a9074ff4 	stp	x20, x19, [sp, #112]
   140006bc4:	aa0203f3 	mov	x19, x2
   140006bc8:	52800069 	mov	w9, #0x3                   	// #3
   140006bcc:	f90023fe 	str	x30, [sp, #64]
   140006bd0:	fd440500 	ldr	d0, [x8, #2056]
   140006bd4:	a9055ff8 	stp	x24, x23, [sp, #80]
   140006bd8:	f9400048 	ldr	x8, [x2]
   140006bdc:	a90657f6 	stp	x22, x21, [sp, #96]
   140006be0:	a900ffe1 	stp	x1, xzr, [sp, #8]
   140006be4:	f90013ff 	str	xzr, [sp, #32]
   140006be8:	3900e3e9 	strb	w9, [sp, #56]
   140006bec:	fd001be0 	str	d0, [sp, #48]
   140006bf0:	f90003e0 	str	x0, [sp]
   140006bf4:	b4000868 	cbz	x8, 0x140006d00
   140006bf8:	f9400669 	ldr	x9, [x19, #8]
   140006bfc:	b4000bc9 	cbz	x9, 0x140006d74
   140006c00:	f9400a6a 	ldr	x10, [x19, #16]
   140006c04:	5280070c 	mov	w12, #0x38                  	// #56
   140006c08:	d100052b 	sub	x11, x9, #0x1
   140006c0c:	91006117 	add	x23, x8, #0x18
   140006c10:	9240f16b 	and	x11, x11, #0x1fffffffffffffff
   140006c14:	9b0c7d35 	mul	x21, x9, x12
   140006c18:	91000574 	add	x20, x11, #0x1
   140006c1c:	91002156 	add	x22, x10, #0x8
   140006c20:	90000018 	adrp	x24, 0x140006000
   140006c24:	91072318 	add	x24, x24, #0x1c8
   140006c28:	f94002c2 	ldr	x2, [x22]
   140006c2c:	b40000c2 	cbz	x2, 0x140006c44
   140006c30:	a94023e0 	ldp	x0, x8, [sp]
   140006c34:	f85f82c1 	ldur	x1, [x22, #-8]
   140006c38:	f9400d08 	ldr	x8, [x8, #24]
   140006c3c:	d63f0100 	blr	x8
   140006c40:	37000b00 	tbnz	w0, #0, 0x140006da0
   140006c44:	394042e8 	ldrb	w8, [x23, #16]
   140006c48:	3900e3e8 	strb	w8, [sp, #56]
   140006c4c:	f9401268 	ldr	x8, [x19, #32]
   140006c50:	fd4006e0 	ldr	d0, [x23, #8]
   140006c54:	fd001be0 	str	d0, [sp, #48]
   140006c58:	a97fa6ea 	ldp	x10, x9, [x23, #-8]
   140006c5c:	b40001ca 	cbz	x10, 0x140006c94
   140006c60:	f100055f 	cmp	x10, #0x1
   140006c64:	540000a1 	b.ne	0x140006c78  // b.any
   140006c68:	8b091109 	add	x9, x8, x9, lsl #4
   140006c6c:	f940052a 	ldr	x10, [x9, #8]
   140006c70:	eb18015f 	cmp	x10, x24
   140006c74:	540000c0 	b.eq	0x140006c8c  // b.none
   140006c78:	aa1f03ea 	mov	x10, xzr
   140006c7c:	a90127ff 	stp	xzr, x9, [sp, #16]
   140006c80:	a97ea6ea 	ldp	x10, x9, [x23, #-24]
   140006c84:	b500010a 	cbnz	x10, 0x140006ca4
   140006c88:	14000011 	b	0x140006ccc
   140006c8c:	f9400129 	ldr	x9, [x9]
   140006c90:	f9400129 	ldr	x9, [x9]
   140006c94:	5280002a 	mov	w10, #0x1                   	// #1
   140006c98:	a90127ea 	stp	x10, x9, [sp, #16]
   140006c9c:	a97ea6ea 	ldp	x10, x9, [x23, #-24]
   140006ca0:	b400016a 	cbz	x10, 0x140006ccc
   140006ca4:	f100055f 	cmp	x10, #0x1
   140006ca8:	540000a1 	b.ne	0x140006cbc  // b.any
   140006cac:	8b091109 	add	x9, x8, x9, lsl #4
   140006cb0:	f940052a 	ldr	x10, [x9, #8]
   140006cb4:	eb18015f 	cmp	x10, x24
   140006cb8:	54000060 	b.eq	0x140006cc4  // b.none
   140006cbc:	aa1f03ea 	mov	x10, xzr
   140006cc0:	14000004 	b	0x140006cd0
   140006cc4:	f9400129 	ldr	x9, [x9]
   140006cc8:	f9400129 	ldr	x9, [x9]
   140006ccc:	5280002a 	mov	w10, #0x1                   	// #1
   140006cd0:	a90227ea 	stp	x10, x9, [sp, #32]
   140006cd4:	910003e1 	mov	x1, sp
   140006cd8:	f9400ee9 	ldr	x9, [x23, #24]
   140006cdc:	8b091108 	add	x8, x8, x9, lsl #4
   140006ce0:	a9402500 	ldp	x0, x9, [x8]
   140006ce4:	d63f0120 	blr	x9
   140006ce8:	370005c0 	tbnz	w0, #0, 0x140006da0
   140006cec:	910042d6 	add	x22, x22, #0x10
   140006cf0:	f100e2b5 	subs	x21, x21, #0x38
   140006cf4:	9100e2f7 	add	x23, x23, #0x38
   140006cf8:	54fff981 	b.ne	0x140006c28  // b.any
   140006cfc:	1400001a 	b	0x140006d64
   140006d00:	f9401668 	ldr	x8, [x19, #40]
   140006d04:	b4000388 	cbz	x8, 0x140006d74
   140006d08:	f9400a69 	ldr	x9, [x19, #16]
   140006d0c:	d100050b 	sub	x11, x8, #0x1
   140006d10:	f940126a 	ldr	x10, [x19, #32]
   140006d14:	9240ed6b 	and	x11, x11, #0xfffffffffffffff
   140006d18:	91000574 	add	x20, x11, #0x1
   140006d1c:	d37ced16 	lsl	x22, x8, #4
   140006d20:	91002135 	add	x21, x9, #0x8
   140006d24:	91002157 	add	x23, x10, #0x8
   140006d28:	f94002a2 	ldr	x2, [x21]
   140006d2c:	b40000c2 	cbz	x2, 0x140006d44
   140006d30:	a94023e0 	ldp	x0, x8, [sp]
   140006d34:	f85f82a1 	ldur	x1, [x21, #-8]
   140006d38:	f9400d08 	ldr	x8, [x8, #24]
   140006d3c:	d63f0100 	blr	x8
   140006d40:	37000300 	tbnz	w0, #0, 0x140006da0
   140006d44:	a97fa2e0 	ldp	x0, x8, [x23, #-8]
   140006d48:	910003e1 	mov	x1, sp
   140006d4c:	d63f0100 	blr	x8
   140006d50:	37000280 	tbnz	w0, #0, 0x140006da0
   140006d54:	910042b5 	add	x21, x21, #0x10
   140006d58:	f10042d6 	subs	x22, x22, #0x10
   140006d5c:	910042f7 	add	x23, x23, #0x10
   140006d60:	54fffe41 	b.ne	0x140006d28  // b.any
   140006d64:	f9400e68 	ldr	x8, [x19, #24]
   140006d68:	eb08029f 	cmp	x20, x8
   140006d6c:	540000c3 	b.cc	0x140006d84  // b.lo, b.ul, b.last
   140006d70:	14000013 	b	0x140006dbc
   140006d74:	aa1f03f4 	mov	x20, xzr
   140006d78:	f9400e68 	ldr	x8, [x19, #24]
   140006d7c:	eb0803ff 	cmp	xzr, x8
   140006d80:	540001e2 	b.cs	0x140006dbc  // b.hs, b.nlast
   140006d84:	f9400a68 	ldr	x8, [x19, #16]
   140006d88:	a94027e0 	ldp	x0, x9, [sp]
   140006d8c:	8b141108 	add	x8, x8, x20, lsl #4
   140006d90:	a9400901 	ldp	x1, x2, [x8]
   140006d94:	f9400d28 	ldr	x8, [x9, #24]
   140006d98:	d63f0100 	blr	x8
   140006d9c:	36000100 	tbz	w0, #0, 0x140006dbc
   140006da0:	52800020 	mov	w0, #0x1                   	// #1
   140006da4:	a9474ff4 	ldp	x20, x19, [sp, #112]
   140006da8:	a94657f6 	ldp	x22, x21, [sp, #96]
   140006dac:	a9455ff8 	ldp	x24, x23, [sp, #80]
   140006db0:	f94023fe 	ldr	x30, [sp, #64]
   140006db4:	910203ff 	add	sp, sp, #0x80
   140006db8:	d65f03c0 	ret
   140006dbc:	2a1f03e0 	mov	w0, wzr
   140006dc0:	a9474ff4 	ldp	x20, x19, [sp, #112]
   140006dc4:	a94657f6 	ldp	x22, x21, [sp, #96]
   140006dc8:	a9455ff8 	ldp	x24, x23, [sp, #80]
   140006dcc:	f94023fe 	ldr	x30, [sp, #64]
   140006dd0:	910203ff 	add	sp, sp, #0x80
   140006dd4:	d65f03c0 	ret
   140006dd8:	d101c3ff 	sub	sp, sp, #0x70
   140006ddc:	a9045ff8 	stp	x24, x23, [sp, #64]
   140006de0:	aa0203f7 	mov	x23, x2
   140006de4:	a90557f6 	stp	x22, x21, [sp, #80]
   140006de8:	aa0303f6 	mov	x22, x3
   140006dec:	a9064ff4 	stp	x20, x19, [sp, #96]
   140006df0:	aa0503f3 	mov	x19, x5
   140006df4:	aa0403f4 	mov	x20, x4
   140006df8:	aa0003f5 	mov	x21, x0
   140006dfc:	a90177fe 	stp	x30, x29, [sp, #16]
   140006e00:	a9026ffc 	stp	x28, x27, [sp, #32]
   140006e04:	a90367fa 	stp	x26, x25, [sp, #48]
   140006e08:	34000221 	cbz	w1, 0x140006e4c
   140006e0c:	b94032b9 	ldr	w25, [x21, #48]
   140006e10:	52800569 	mov	w9, #0x2b                  	// #43
   140006e14:	52a0022a 	mov	w10, #0x110000              	// #1114112
   140006e18:	92400328 	and	x8, x25, #0x1
   140006e1c:	7100011f 	cmp	w8, #0x0
   140006e20:	8b13011a 	add	x26, x8, x19
   140006e24:	1a890158 	csel	w24, w10, w9, eq	// eq = none
   140006e28:	361001b9 	tbz	w25, #2, 0x140006e5c
   140006e2c:	f10082df 	cmp	x22, #0x20
   140006e30:	540001e2 	b.cs	0x140006e6c  // b.hs, b.nlast
   140006e34:	b4000256 	cbz	x22, 0x140006e7c
   140006e38:	f10022df 	cmp	x22, #0x8
   140006e3c:	54000242 	b.cs	0x140006e84  // b.hs, b.nlast
   140006e40:	aa1f03e0 	mov	x0, xzr
   140006e44:	aa1703e8 	mov	x8, x23
   140006e48:	14000077 	b	0x140007024
   140006e4c:	9100067a 	add	x26, x19, #0x1
   140006e50:	b94032b9 	ldr	w25, [x21, #48]
   140006e54:	528005b8 	mov	w24, #0x2d                  	// #45
   140006e58:	3717feb9 	tbnz	w25, #2, 0x140006e2c
   140006e5c:	aa1f03f7 	mov	x23, xzr
   140006e60:	f9400aa8 	ldr	x8, [x21, #16]
   140006e64:	b5000f28 	cbnz	x8, 0x140007048
   140006e68:	14000085 	b	0x14000707c
   140006e6c:	aa1703e0 	mov	x0, x23
   140006e70:	aa1603e1 	mov	x1, x22
   140006e74:	940005c3 	bl	0x140008580
   140006e78:	14000071 	b	0x14000703c
   140006e7c:	aa1f03e0 	mov	x0, xzr
   140006e80:	1400006f 	b	0x14000703c
   140006e84:	f10042df 	cmp	x22, #0x10
   140006e88:	54000082 	b.cs	0x140006e98  // b.hs, b.nlast
   140006e8c:	aa1f03e0 	mov	x0, xzr
   140006e90:	aa1f03ea 	mov	x10, xzr
   140006e94:	1400003e 	b	0x140006f8c
   140006e98:	4f05e7e0 	movi	v0.16b, #0xbf
   140006e9c:	3dc002e1 	ldr	q1, [x23]
   140006ea0:	4e203420 	cmgt	v0.16b, v1.16b, v0.16b
   140006ea4:	0e033c08 	umov	w8, v0.b[1]
   140006ea8:	0e053c0a 	umov	w10, v0.b[2]
   140006eac:	0e013c09 	umov	w9, v0.b[0]
   140006eb0:	0e073c0b 	umov	w11, v0.b[3]
   140006eb4:	0e093c0c 	umov	w12, v0.b[4]
   140006eb8:	0e0b3c0d 	umov	w13, v0.b[5]
   140006ebc:	12000108 	and	w8, w8, #0x1
   140006ec0:	1200014a 	and	w10, w10, #0x1
   140006ec4:	12000129 	and	w9, w9, #0x1
   140006ec8:	1200016b 	and	w11, w11, #0x1
   140006ecc:	1200018c 	and	w12, w12, #0x1
   140006ed0:	120001ad 	and	w13, w13, #0x1
   140006ed4:	331f0109 	bfi	w9, w8, #1, #1
   140006ed8:	0e0d3c08 	umov	w8, v0.b[6]
   140006edc:	331e0149 	bfi	w9, w10, #2, #1
   140006ee0:	0e0f3c0a 	umov	w10, v0.b[7]
   140006ee4:	331d0169 	bfi	w9, w11, #3, #1
   140006ee8:	0e113c0b 	umov	w11, v0.b[8]
   140006eec:	331c0189 	bfi	w9, w12, #4, #1
   140006ef0:	0e133c0c 	umov	w12, v0.b[9]
   140006ef4:	12000108 	and	w8, w8, #0x1
   140006ef8:	331b01a9 	bfi	w9, w13, #5, #1
   140006efc:	0e153c0d 	umov	w13, v0.b[10]
   140006f00:	1200014a 	and	w10, w10, #0x1
   140006f04:	2a081928 	orr	w8, w9, w8, lsl #6
   140006f08:	0e173c09 	umov	w9, v0.b[11]
   140006f0c:	1200016b 	and	w11, w11, #0x1
   140006f10:	2a0a1d08 	orr	w8, w8, w10, lsl #7
   140006f14:	0e193c0a 	umov	w10, v0.b[12]
   140006f18:	1200018c 	and	w12, w12, #0x1
   140006f1c:	2a0b2108 	orr	w8, w8, w11, lsl #8
   140006f20:	0e1b3c0b 	umov	w11, v0.b[13]
   140006f24:	120001ad 	and	w13, w13, #0x1
   140006f28:	2a0c2508 	orr	w8, w8, w12, lsl #9
   140006f2c:	0e1d3c0c 	umov	w12, v0.b[14]
   140006f30:	12000129 	and	w9, w9, #0x1
   140006f34:	2a0d2908 	orr	w8, w8, w13, lsl #10
   140006f38:	1200014a 	and	w10, w10, #0x1
   140006f3c:	2a092d08 	orr	w8, w8, w9, lsl #11
   140006f40:	12000169 	and	w9, w11, #0x1
   140006f44:	0e1f3c0b 	umov	w11, v0.b[15]
   140006f48:	2a0a3108 	orr	w8, w8, w10, lsl #12
   140006f4c:	1200018a 	and	w10, w12, #0x1
   140006f50:	2a093508 	orr	w8, w8, w9, lsl #13
   140006f54:	2a0a3908 	orr	w8, w8, w10, lsl #14
   140006f58:	927ceeca 	and	x10, x22, #0xfffffffffffffff0
   140006f5c:	2a0b3d08 	orr	w8, w8, w11, lsl #15
   140006f60:	eb16015f 	cmp	x10, x22
   140006f64:	79001fe8 	strh	w8, [sp, #14]
   140006f68:	12003d08 	and	w8, w8, #0xffff
   140006f6c:	9e670100 	fmov	d0, x8
   140006f70:	0e205800 	cnt	v0.8b, v0.8b
   140006f74:	2e303800 	uaddlv	h0, v0.8b
   140006f78:	1e260000 	fmov	w0, s0
   140006f7c:	54000600 	b.eq	0x14000703c  // b.none
   140006f80:	37180076 	tbnz	w22, #3, 0x140006f8c
   140006f84:	8b0a02e8 	add	x8, x23, x10
   140006f88:	14000027 	b	0x140007024
   140006f8c:	6f00e401 	movi	v1.2d, #0x0
   140006f90:	5280002c 	mov	w12, #0x1                   	// #1
   140006f94:	927df2c9 	and	x9, x22, #0xfffffffffffffff8
   140006f98:	0f05e7e2 	movi	v2.8b, #0xbf
   140006f9c:	6f00e400 	movi	v0.2d, #0x0
   140006fa0:	8b0902e8 	add	x8, x23, x9
   140006fa4:	6f00e403 	movi	v3.2d, #0x0
   140006fa8:	8b0a02eb 	add	x11, x23, x10
   140006fac:	4e081c01 	mov	v1.d[0], x0
   140006fb0:	cb09014a 	sub	x10, x10, x9
   140006fb4:	6f00e404 	movi	v4.2d, #0x0
   140006fb8:	4e080d85 	dup	v5.2d, x12
   140006fbc:	fc408566 	ldr	d6, [x11], #8
   140006fc0:	b100214a 	adds	x10, x10, #0x8
   140006fc4:	0e2234c6 	cmgt	v6.8b, v6.8b, v2.8b
   140006fc8:	2f08a4c6 	uxtl	v6.8h, v6.8b
   140006fcc:	2f10a4c7 	uxtl	v7.4s, v6.4h
   140006fd0:	6f10a4c6 	uxtl2	v6.4s, v6.8h
   140006fd4:	2f20a4f0 	uxtl	v16.2d, v7.2s
   140006fd8:	6f20a4e7 	uxtl2	v7.2d, v7.4s
   140006fdc:	2f20a4d1 	uxtl	v17.2d, v6.2s
   140006fe0:	6f20a4c6 	uxtl2	v6.2d, v6.4s
   140006fe4:	4e251e10 	and	v16.16b, v16.16b, v5.16b
   140006fe8:	4e251ce7 	and	v7.16b, v7.16b, v5.16b
   140006fec:	4e251e31 	and	v17.16b, v17.16b, v5.16b
   140006ff0:	4e251cc6 	and	v6.16b, v6.16b, v5.16b
   140006ff4:	4ee68484 	add	v4.2d, v4.2d, v6.2d
   140006ff8:	4ef18463 	add	v3.2d, v3.2d, v17.2d
   140006ffc:	4ee78400 	add	v0.2d, v0.2d, v7.2d
   140007000:	4ef08421 	add	v1.2d, v1.2d, v16.2d
   140007004:	54fffdc1 	b.ne	0x140006fbc  // b.any
   140007008:	4ee38421 	add	v1.2d, v1.2d, v3.2d
   14000700c:	eb16013f 	cmp	x9, x22
   140007010:	4ee48400 	add	v0.2d, v0.2d, v4.2d
   140007014:	4ee08420 	add	v0.2d, v1.2d, v0.2d
   140007018:	5ef1b800 	addp	d0, v0.2d
   14000701c:	9e660000 	fmov	x0, d0
   140007020:	540000e0 	b.eq	0x14000703c  // b.none
   140007024:	8b1602e9 	add	x9, x23, x22
   140007028:	38c0150a 	ldrsb	w10, [x8], #1
   14000702c:	3101055f 	cmn	w10, #0x41
   140007030:	9a80d400 	cinc	x0, x0, gt
   140007034:	eb09011f 	cmp	x8, x9
   140007038:	54ffff81 	b.ne	0x140007028  // b.any
   14000703c:	8b1a001a 	add	x26, x0, x26
   140007040:	f9400aa8 	ldr	x8, [x21, #16]
   140007044:	b40001c8 	cbz	x8, 0x14000707c
   140007048:	f9400ea8 	ldr	x8, [x21, #24]
   14000704c:	eb1a011c 	subs	x28, x8, x26
   140007050:	54000169 	b.ls	0x14000707c  // b.plast
   140007054:	37180519 	tbnz	w25, #3, 0x1400070f4
   140007058:	3940e2a8 	ldrb	w8, [x21, #56]
   14000705c:	71000d1f 	cmp	w8, #0x3
   140007060:	1a9f1508 	csinc	w8, w8, wzr, ne	// ne = any
   140007064:	7200051f 	tst	w8, #0x3
   140007068:	54000760 	b.eq	0x140007154  // b.none
   14000706c:	7100051f 	cmp	w8, #0x1
   140007070:	54000761 	b.ne	0x14000715c  // b.any
   140007074:	aa1f03fb 	mov	x27, xzr
   140007078:	1400003d 	b	0x14000716c
   14000707c:	a94056b9 	ldp	x25, x21, [x21]
   140007080:	2a1803e2 	mov	w2, w24
   140007084:	aa1703e3 	mov	x3, x23
   140007088:	aa1603e4 	mov	x4, x22
   14000708c:	aa1903e0 	mov	x0, x25
   140007090:	aa1503e1 	mov	x1, x21
   140007094:	9400006a 	bl	0x14000723c
   140007098:	36000160 	tbz	w0, #0, 0x1400070c4
   14000709c:	52800039 	mov	w25, #0x1                   	// #1
   1400070a0:	2a1903e0 	mov	w0, w25
   1400070a4:	a9464ff4 	ldp	x20, x19, [sp, #96]
   1400070a8:	a94557f6 	ldp	x22, x21, [sp, #80]
   1400070ac:	a9445ff8 	ldp	x24, x23, [sp, #64]
   1400070b0:	a94367fa 	ldp	x26, x25, [sp, #48]
   1400070b4:	a9426ffc 	ldp	x28, x27, [sp, #32]
   1400070b8:	a94177fe 	ldp	x30, x29, [sp, #16]
   1400070bc:	9101c3ff 	add	sp, sp, #0x70
   1400070c0:	d65f03c0 	ret
   1400070c4:	f9400ea3 	ldr	x3, [x21, #24]
   1400070c8:	aa1903e0 	mov	x0, x25
   1400070cc:	aa1403e1 	mov	x1, x20
   1400070d0:	aa1303e2 	mov	x2, x19
   1400070d4:	a9464ff4 	ldp	x20, x19, [sp, #96]
   1400070d8:	a94557f6 	ldp	x22, x21, [sp, #80]
   1400070dc:	a9445ff8 	ldp	x24, x23, [sp, #64]
   1400070e0:	a94367fa 	ldp	x26, x25, [sp, #48]
   1400070e4:	a9426ffc 	ldp	x28, x27, [sp, #32]
   1400070e8:	a94177fe 	ldp	x30, x29, [sp, #16]
   1400070ec:	9101c3ff 	add	sp, sp, #0x70
   1400070f0:	d61f0060 	br	x3
   1400070f4:	a9406eba 	ldp	x26, x27, [x21]
   1400070f8:	52800039 	mov	w25, #0x1                   	// #1
   1400070fc:	2a1803e2 	mov	w2, w24
   140007100:	b94036a8 	ldr	w8, [x21, #52]
   140007104:	aa1703e3 	mov	x3, x23
   140007108:	aa1603e4 	mov	x4, x22
   14000710c:	3940e2bd 	ldrb	w29, [x21, #56]
   140007110:	aa1a03e0 	mov	x0, x26
   140007114:	3900e2b9 	strb	w25, [x21, #56]
   140007118:	b9000be8 	str	w8, [sp, #8]
   14000711c:	52800608 	mov	w8, #0x30                  	// #48
   140007120:	aa1b03e1 	mov	x1, x27
   140007124:	b90036a8 	str	w8, [x21, #52]
   140007128:	94000045 	bl	0x14000723c
   14000712c:	3707fba0 	tbnz	w0, #0, 0x1400070a0
   140007130:	91000796 	add	x22, x28, #0x1
   140007134:	f10006d6 	subs	x22, x22, #0x1
   140007138:	54000640 	b.eq	0x140007200  // b.none
   14000713c:	f9401368 	ldr	x8, [x27, #32]
   140007140:	aa1a03e0 	mov	x0, x26
   140007144:	52800601 	mov	w1, #0x30                  	// #48
   140007148:	d63f0100 	blr	x8
   14000714c:	3607ff40 	tbz	w0, #0, 0x140007134
   140007150:	17ffffd3 	b	0x14000709c
   140007154:	aa1c03fb 	mov	x27, x28
   140007158:	14000004 	b	0x140007168
   14000715c:	91000789 	add	x9, x28, #0x1
   140007160:	d341ff88 	lsr	x8, x28, #1
   140007164:	d341fd3b 	lsr	x27, x9, #1
   140007168:	aa0803fc 	mov	x28, x8
   14000716c:	a9406ab9 	ldp	x25, x26, [x21]
   140007170:	9100079c 	add	x28, x28, #0x1
   140007174:	b94036b5 	ldr	w21, [x21, #52]
   140007178:	f100079c 	subs	x28, x28, #0x1
   14000717c:	540000e0 	b.eq	0x140007198  // b.none
   140007180:	f9401348 	ldr	x8, [x26, #32]
   140007184:	aa1903e0 	mov	x0, x25
   140007188:	2a1503e1 	mov	w1, w21
   14000718c:	d63f0100 	blr	x8
   140007190:	3607ff40 	tbz	w0, #0, 0x140007178
   140007194:	17ffffc2 	b	0x14000709c
   140007198:	714442bf 	cmp	w21, #0x110, lsl #12
   14000719c:	54fff800 	b.eq	0x14000709c  // b.none
   1400071a0:	aa1903e0 	mov	x0, x25
   1400071a4:	aa1a03e1 	mov	x1, x26
   1400071a8:	2a1803e2 	mov	w2, w24
   1400071ac:	aa1703e3 	mov	x3, x23
   1400071b0:	aa1603e4 	mov	x4, x22
   1400071b4:	94000022 	bl	0x14000723c
   1400071b8:	3707f720 	tbnz	w0, #0, 0x14000709c
   1400071bc:	f9400f48 	ldr	x8, [x26, #24]
   1400071c0:	aa1903e0 	mov	x0, x25
   1400071c4:	aa1403e1 	mov	x1, x20
   1400071c8:	aa1303e2 	mov	x2, x19
   1400071cc:	d63f0100 	blr	x8
   1400071d0:	3707f660 	tbnz	w0, #0, 0x14000709c
   1400071d4:	aa1f03f3 	mov	x19, xzr
   1400071d8:	eb13037f 	cmp	x27, x19
   1400071dc:	54000280 	b.eq	0x14000722c  // b.none
   1400071e0:	f9401348 	ldr	x8, [x26, #32]
   1400071e4:	aa1903e0 	mov	x0, x25
   1400071e8:	2a1503e1 	mov	w1, w21
   1400071ec:	91000673 	add	x19, x19, #0x1
   1400071f0:	d63f0100 	blr	x8
   1400071f4:	34ffff20 	cbz	w0, 0x1400071d8
   1400071f8:	d1000668 	sub	x8, x19, #0x1
   1400071fc:	1400000d 	b	0x140007230
   140007200:	f9400f68 	ldr	x8, [x27, #24]
   140007204:	aa1a03e0 	mov	x0, x26
   140007208:	aa1403e1 	mov	x1, x20
   14000720c:	aa1303e2 	mov	x2, x19
   140007210:	d63f0100 	blr	x8
   140007214:	3707f440 	tbnz	w0, #0, 0x14000709c
   140007218:	2a1f03f9 	mov	w25, wzr
   14000721c:	b9400be8 	ldr	w8, [sp, #8]
   140007220:	3900e2bd 	strb	w29, [x21, #56]
   140007224:	b90036a8 	str	w8, [x21, #52]
   140007228:	17ffff9e 	b	0x1400070a0
   14000722c:	aa1b03e8 	mov	x8, x27
   140007230:	eb1b011f 	cmp	x8, x27
   140007234:	1a9f27f9 	cset	w25, cc	// cc = lo, ul, last
   140007238:	17ffff9a 	b	0x1400070a0
   14000723c:	f81d0ffe 	str	x30, [sp, #-48]!
   140007240:	a90157f6 	stp	x22, x21, [sp, #16]
   140007244:	aa0103f6 	mov	x22, x1
   140007248:	a9024ff4 	stp	x20, x19, [sp, #32]
   14000724c:	aa0403f3 	mov	x19, x4
   140007250:	aa0303f4 	mov	x20, x3
   140007254:	aa0003f5 	mov	x21, x0
   140007258:	7144405f 	cmp	w2, #0x110, lsl #12
   14000725c:	54000160 	b.eq	0x140007288  // b.none
   140007260:	f94012c8 	ldr	x8, [x22, #32]
   140007264:	aa1503e0 	mov	x0, x21
   140007268:	2a0203e1 	mov	w1, w2
   14000726c:	d63f0100 	blr	x8
   140007270:	360000c0 	tbz	w0, #0, 0x140007288
   140007274:	52800020 	mov	w0, #0x1                   	// #1
   140007278:	a9424ff4 	ldp	x20, x19, [sp, #32]
   14000727c:	a94157f6 	ldp	x22, x21, [sp, #16]
   140007280:	f84307fe 	ldr	x30, [sp], #48
   140007284:	d65f03c0 	ret
   140007288:	b4000134 	cbz	x20, 0x1400072ac
   14000728c:	f9400ec3 	ldr	x3, [x22, #24]
   140007290:	aa1503e0 	mov	x0, x21
   140007294:	aa1403e1 	mov	x1, x20
   140007298:	aa1303e2 	mov	x2, x19
   14000729c:	a9424ff4 	ldp	x20, x19, [sp, #32]
   1400072a0:	a94157f6 	ldp	x22, x21, [sp, #16]
   1400072a4:	f84307fe 	ldr	x30, [sp], #48
   1400072a8:	d61f0060 	br	x3
   1400072ac:	2a1f03e0 	mov	w0, wzr
   1400072b0:	a9424ff4 	ldp	x20, x19, [sp, #32]
   1400072b4:	a94157f6 	ldp	x22, x21, [sp, #16]
   1400072b8:	f84307fe 	ldr	x30, [sp], #48
   1400072bc:	d65f03c0 	ret
   1400072c0:	d10143ff 	sub	sp, sp, #0x50
   1400072c4:	f9400808 	ldr	x8, [x0, #16]
   1400072c8:	a90357f6 	stp	x22, x21, [sp, #48]
   1400072cc:	f9401009 	ldr	x9, [x0, #32]
   1400072d0:	a9044ff4 	stp	x20, x19, [sp, #64]
   1400072d4:	aa0203f3 	mov	x19, x2
   1400072d8:	aa0003f5 	mov	x21, x0
   1400072dc:	f100051f 	cmp	x8, #0x1
   1400072e0:	aa0103f4 	mov	x20, x1
   1400072e4:	fa411924 	ccmp	x9, #0x1, #0x4, ne	// ne = any
   1400072e8:	a90167fe 	stp	x30, x25, [sp, #16]
   1400072ec:	a9025ff8 	stp	x24, x23, [sp, #32]
   1400072f0:	54001b41 	b.ne	0x140007658  // b.any
   1400072f4:	f100053f 	cmp	x9, #0x1
   1400072f8:	540009e1 	b.ne	0x140007434  // b.any
   1400072fc:	f94016aa 	ldr	x10, [x21, #40]
   140007300:	aa1f03e9 	mov	x9, xzr
   140007304:	8b13028b 	add	x11, x20, x19
   140007308:	9100054c 	add	x12, x10, #0x1
   14000730c:	aa1403ea 	mov	x10, x20
   140007310:	14000007 	b	0x14000732c
   140007314:	2a1003ed 	mov	w13, w16
   140007318:	cb0a0129 	sub	x9, x9, x10
   14000731c:	aa0e03ea 	mov	x10, x14
   140007320:	8b0e0129 	add	x9, x9, x14
   140007324:	714441bf 	cmp	w13, #0x110, lsl #12
   140007328:	54000860 	b.eq	0x140007434  // b.none
   14000732c:	f100058c 	subs	x12, x12, #0x1
   140007330:	54000400 	b.eq	0x1400073b0  // b.none
   140007334:	eb0b015f 	cmp	x10, x11
   140007338:	540007e0 	b.eq	0x140007434  // b.none
   14000733c:	aa0a03ee 	mov	x14, x10
   140007340:	38c015cd 	ldrsb	w13, [x14], #1
   140007344:	12001db0 	and	w16, w13, #0xff
   140007348:	36fffe6d 	tbz	w13, #31, 0x140007314
   14000734c:	3940054d 	ldrb	w13, [x10, #1]
   140007350:	1200120f 	and	w15, w16, #0x1f
   140007354:	71037e1f 	cmp	w16, #0xdf
   140007358:	120015ad 	and	w13, w13, #0x3f
   14000735c:	540001c9 	b.ls	0x140007394  // b.plast
   140007360:	3940094e 	ldrb	w14, [x10, #2]
   140007364:	7103c21f 	cmp	w16, #0xf0
   140007368:	120015d1 	and	w17, w14, #0x3f
   14000736c:	331a15b1 	bfi	w17, w13, #6, #6
   140007370:	54000183 	b.cc	0x1400073a0  // b.lo, b.ul, b.last
   140007374:	39400d4d 	ldrb	w13, [x10, #3]
   140007378:	120015ad 	and	w13, w13, #0x3f
   14000737c:	331a2e2d 	bfi	w13, w17, #6, #12
   140007380:	330e09ed 	bfi	w13, w15, #18, #3
   140007384:	714441bf 	cmp	w13, #0x110, lsl #12
   140007388:	54000560 	b.eq	0x140007434  // b.none
   14000738c:	9100114e 	add	x14, x10, #0x4
   140007390:	17ffffe2 	b	0x140007318
   140007394:	9100094e 	add	x14, x10, #0x2
   140007398:	331a11ed 	bfi	w13, w15, #6, #5
   14000739c:	17ffffdf 	b	0x140007318
   1400073a0:	331411f1 	bfi	w17, w15, #12, #5
   1400073a4:	91000d4e 	add	x14, x10, #0x3
   1400073a8:	2a1103ed 	mov	w13, w17
   1400073ac:	17ffffdb 	b	0x140007318
   1400073b0:	eb0b015f 	cmp	x10, x11
   1400073b4:	54000400 	b.eq	0x140007434  // b.none
   1400073b8:	39c0014b 	ldrsb	w11, [x10]
   1400073bc:	36f8022b 	tbz	w11, #31, 0x140007400
   1400073c0:	12001d6b 	and	w11, w11, #0xff
   1400073c4:	7103817f 	cmp	w11, #0xe0
   1400073c8:	540001c3 	b.cc	0x140007400  // b.lo, b.ul, b.last
   1400073cc:	7103c17f 	cmp	w11, #0xf0
   1400073d0:	54000183 	b.cc	0x140007400  // b.lo, b.ul, b.last
   1400073d4:	3940094c 	ldrb	w12, [x10, #2]
   1400073d8:	3940054d 	ldrb	w13, [x10, #1]
   1400073dc:	39400d4a 	ldrb	w10, [x10, #3]
   1400073e0:	1200158c 	and	w12, w12, #0x3f
   1400073e4:	120015ad 	and	w13, w13, #0x3f
   1400073e8:	53144dad 	lsl	w13, w13, #12
   1400073ec:	331a158d 	bfi	w13, w12, #6, #6
   1400073f0:	3300154d 	bfxil	w13, w10, #0, #6
   1400073f4:	330e096d 	bfi	w13, w11, #18, #3
   1400073f8:	714441bf 	cmp	w13, #0x110, lsl #12
   1400073fc:	540001c0 	b.eq	0x140007434  // b.none
   140007400:	b4000129 	cbz	x9, 0x140007424
   140007404:	eb13013f 	cmp	x9, x19
   140007408:	540000c2 	b.cs	0x140007420  // b.hs, b.nlast
   14000740c:	38e96a8a 	ldrsb	w10, [x20, x9]
   140007410:	3101015f 	cmn	w10, #0x40
   140007414:	5400008a 	b.ge	0x140007424  // b.tcont
   140007418:	aa1f03ea 	mov	x10, xzr
   14000741c:	14000003 	b	0x140007428
   140007420:	54ffffc1 	b.ne	0x140007418  // b.any
   140007424:	aa1403ea 	mov	x10, x20
   140007428:	f100015f 	cmp	x10, #0x0
   14000742c:	9a890273 	csel	x19, x19, x9, eq	// eq = none
   140007430:	9a8a0294 	csel	x20, x20, x10, eq	// eq = none
   140007434:	b4001128 	cbz	x8, 0x140007658
   140007438:	f9400eb6 	ldr	x22, [x21, #24]
   14000743c:	f100827f 	cmp	x19, #0x20
   140007440:	540000e2 	b.cs	0x14000745c  // b.hs, b.nlast
   140007444:	b4000153 	cbz	x19, 0x14000746c
   140007448:	f100227f 	cmp	x19, #0x8
   14000744c:	54000142 	b.cs	0x140007474  // b.hs, b.nlast
   140007450:	aa1f03e0 	mov	x0, xzr
   140007454:	aa1403e8 	mov	x8, x20
   140007458:	1400006f 	b	0x140007614
   14000745c:	aa1403e0 	mov	x0, x20
   140007460:	aa1303e1 	mov	x1, x19
   140007464:	94000447 	bl	0x140008580
   140007468:	14000071 	b	0x14000762c
   14000746c:	aa1f03e0 	mov	x0, xzr
   140007470:	1400006f 	b	0x14000762c
   140007474:	f100427f 	cmp	x19, #0x10
   140007478:	54000082 	b.cs	0x140007488  // b.hs, b.nlast
   14000747c:	aa1f03e0 	mov	x0, xzr
   140007480:	aa1f03ea 	mov	x10, xzr
   140007484:	1400003e 	b	0x14000757c
   140007488:	4f05e7e0 	movi	v0.16b, #0xbf
   14000748c:	3dc00281 	ldr	q1, [x20]
   140007490:	4e203420 	cmgt	v0.16b, v1.16b, v0.16b
   140007494:	0e033c08 	umov	w8, v0.b[1]
   140007498:	0e053c0a 	umov	w10, v0.b[2]
   14000749c:	0e013c09 	umov	w9, v0.b[0]
   1400074a0:	0e073c0b 	umov	w11, v0.b[3]
   1400074a4:	0e093c0c 	umov	w12, v0.b[4]
   1400074a8:	0e0b3c0d 	umov	w13, v0.b[5]
   1400074ac:	12000108 	and	w8, w8, #0x1
   1400074b0:	1200014a 	and	w10, w10, #0x1
   1400074b4:	12000129 	and	w9, w9, #0x1
   1400074b8:	1200016b 	and	w11, w11, #0x1
   1400074bc:	1200018c 	and	w12, w12, #0x1
   1400074c0:	120001ad 	and	w13, w13, #0x1
   1400074c4:	331f0109 	bfi	w9, w8, #1, #1
   1400074c8:	0e0d3c08 	umov	w8, v0.b[6]
   1400074cc:	331e0149 	bfi	w9, w10, #2, #1
   1400074d0:	0e0f3c0a 	umov	w10, v0.b[7]
   1400074d4:	331d0169 	bfi	w9, w11, #3, #1
   1400074d8:	0e113c0b 	umov	w11, v0.b[8]
   1400074dc:	331c0189 	bfi	w9, w12, #4, #1
   1400074e0:	0e133c0c 	umov	w12, v0.b[9]
   1400074e4:	12000108 	and	w8, w8, #0x1
   1400074e8:	331b01a9 	bfi	w9, w13, #5, #1
   1400074ec:	0e153c0d 	umov	w13, v0.b[10]
   1400074f0:	1200014a 	and	w10, w10, #0x1
   1400074f4:	2a081928 	orr	w8, w9, w8, lsl #6
   1400074f8:	0e173c09 	umov	w9, v0.b[11]
   1400074fc:	1200016b 	and	w11, w11, #0x1
   140007500:	2a0a1d08 	orr	w8, w8, w10, lsl #7
   140007504:	0e193c0a 	umov	w10, v0.b[12]
   140007508:	1200018c 	and	w12, w12, #0x1
   14000750c:	2a0b2108 	orr	w8, w8, w11, lsl #8
   140007510:	0e1b3c0b 	umov	w11, v0.b[13]
   140007514:	120001ad 	and	w13, w13, #0x1
   140007518:	2a0c2508 	orr	w8, w8, w12, lsl #9
   14000751c:	0e1d3c0c 	umov	w12, v0.b[14]
   140007520:	12000129 	and	w9, w9, #0x1
   140007524:	2a0d2908 	orr	w8, w8, w13, lsl #10
   140007528:	1200014a 	and	w10, w10, #0x1
   14000752c:	2a092d08 	orr	w8, w8, w9, lsl #11
   140007530:	12000169 	and	w9, w11, #0x1
   140007534:	0e1f3c0b 	umov	w11, v0.b[15]
   140007538:	2a0a3108 	orr	w8, w8, w10, lsl #12
   14000753c:	1200018a 	and	w10, w12, #0x1
   140007540:	2a093508 	orr	w8, w8, w9, lsl #13
   140007544:	2a0a3908 	orr	w8, w8, w10, lsl #14
   140007548:	927cee6a 	and	x10, x19, #0xfffffffffffffff0
   14000754c:	2a0b3d08 	orr	w8, w8, w11, lsl #15
   140007550:	eb0a027f 	cmp	x19, x10
   140007554:	79001fe8 	strh	w8, [sp, #14]
   140007558:	12003d08 	and	w8, w8, #0xffff
   14000755c:	9e670100 	fmov	d0, x8
   140007560:	0e205800 	cnt	v0.8b, v0.8b
   140007564:	2e303800 	uaddlv	h0, v0.8b
   140007568:	1e260000 	fmov	w0, s0
   14000756c:	54000600 	b.eq	0x14000762c  // b.none
   140007570:	37180073 	tbnz	w19, #3, 0x14000757c
   140007574:	8b0a0288 	add	x8, x20, x10
   140007578:	14000027 	b	0x140007614
   14000757c:	6f00e401 	movi	v1.2d, #0x0
   140007580:	5280002c 	mov	w12, #0x1                   	// #1
   140007584:	927df269 	and	x9, x19, #0xfffffffffffffff8
   140007588:	0f05e7e2 	movi	v2.8b, #0xbf
   14000758c:	6f00e400 	movi	v0.2d, #0x0
   140007590:	8b090288 	add	x8, x20, x9
   140007594:	6f00e403 	movi	v3.2d, #0x0
   140007598:	8b0a028b 	add	x11, x20, x10
   14000759c:	4e081c01 	mov	v1.d[0], x0
   1400075a0:	cb09014a 	sub	x10, x10, x9
   1400075a4:	6f00e404 	movi	v4.2d, #0x0
   1400075a8:	4e080d85 	dup	v5.2d, x12
   1400075ac:	fc408566 	ldr	d6, [x11], #8
   1400075b0:	b100214a 	adds	x10, x10, #0x8
   1400075b4:	0e2234c6 	cmgt	v6.8b, v6.8b, v2.8b
   1400075b8:	2f08a4c6 	uxtl	v6.8h, v6.8b
   1400075bc:	2f10a4c7 	uxtl	v7.4s, v6.4h
   1400075c0:	6f10a4c6 	uxtl2	v6.4s, v6.8h
   1400075c4:	2f20a4f0 	uxtl	v16.2d, v7.2s
   1400075c8:	6f20a4e7 	uxtl2	v7.2d, v7.4s
   1400075cc:	2f20a4d1 	uxtl	v17.2d, v6.2s
   1400075d0:	6f20a4c6 	uxtl2	v6.2d, v6.4s
   1400075d4:	4e251e10 	and	v16.16b, v16.16b, v5.16b
   1400075d8:	4e251ce7 	and	v7.16b, v7.16b, v5.16b
   1400075dc:	4e251e31 	and	v17.16b, v17.16b, v5.16b
   1400075e0:	4e251cc6 	and	v6.16b, v6.16b, v5.16b
   1400075e4:	4ee68484 	add	v4.2d, v4.2d, v6.2d
   1400075e8:	4ef18463 	add	v3.2d, v3.2d, v17.2d
   1400075ec:	4ee78400 	add	v0.2d, v0.2d, v7.2d
   1400075f0:	4ef08421 	add	v1.2d, v1.2d, v16.2d
   1400075f4:	54fffdc1 	b.ne	0x1400075ac  // b.any
   1400075f8:	4ee38421 	add	v1.2d, v1.2d, v3.2d
   1400075fc:	eb09027f 	cmp	x19, x9
   140007600:	4ee48400 	add	v0.2d, v0.2d, v4.2d
   140007604:	4ee08420 	add	v0.2d, v1.2d, v0.2d
   140007608:	5ef1b800 	addp	d0, v0.2d
   14000760c:	9e660000 	fmov	x0, d0
   140007610:	540000e0 	b.eq	0x14000762c  // b.none
   140007614:	8b130289 	add	x9, x20, x19
   140007618:	38c0150a 	ldrsb	w10, [x8], #1
   14000761c:	3101055f 	cmn	w10, #0x41
   140007620:	9a80d400 	cinc	x0, x0, gt
   140007624:	eb09011f 	cmp	x8, x9
   140007628:	54ffff81 	b.ne	0x140007618  // b.any
   14000762c:	eb0002c8 	subs	x8, x22, x0
   140007630:	54000149 	b.ls	0x140007658  // b.plast
   140007634:	3940e2a9 	ldrb	w9, [x21, #56]
   140007638:	71000d3f 	cmp	w9, #0x3
   14000763c:	1a8903e9 	csel	w9, wzr, w9, eq	// eq = none
   140007640:	7200053f 	tst	w9, #0x3
   140007644:	540001e0 	b.eq	0x140007680  // b.none
   140007648:	7100053f 	cmp	w9, #0x1
   14000764c:	540001e1 	b.ne	0x140007688  // b.any
   140007650:	aa1f03f7 	mov	x23, xzr
   140007654:	14000011 	b	0x140007698
   140007658:	a94022a0 	ldp	x0, x8, [x21]
   14000765c:	aa1403e1 	mov	x1, x20
   140007660:	aa1303e2 	mov	x2, x19
   140007664:	a9444ff4 	ldp	x20, x19, [sp, #64]
   140007668:	a94357f6 	ldp	x22, x21, [sp, #48]
   14000766c:	a9425ff8 	ldp	x24, x23, [sp, #32]
   140007670:	a94167fe 	ldp	x30, x25, [sp, #16]
   140007674:	f9400d03 	ldr	x3, [x8, #24]
   140007678:	910143ff 	add	sp, sp, #0x50
   14000767c:	d61f0060 	br	x3
   140007680:	aa0803f7 	mov	x23, x8
   140007684:	14000004 	b	0x140007694
   140007688:	d341fd09 	lsr	x9, x8, #1
   14000768c:	91000508 	add	x8, x8, #0x1
   140007690:	d341fd17 	lsr	x23, x8, #1
   140007694:	aa0903e8 	mov	x8, x9
   140007698:	a94062b6 	ldp	x22, x24, [x21]
   14000769c:	91000519 	add	x25, x8, #0x1
   1400076a0:	b94036b5 	ldr	w21, [x21, #52]
   1400076a4:	f1000739 	subs	x25, x25, #0x1
   1400076a8:	540000e0 	b.eq	0x1400076c4  // b.none
   1400076ac:	f9401308 	ldr	x8, [x24, #32]
   1400076b0:	aa1603e0 	mov	x0, x22
   1400076b4:	2a1503e1 	mov	w1, w21
   1400076b8:	d63f0100 	blr	x8
   1400076bc:	3607ff40 	tbz	w0, #0, 0x1400076a4
   1400076c0:	14000009 	b	0x1400076e4
   1400076c4:	714442bf 	cmp	w21, #0x110, lsl #12
   1400076c8:	540000e0 	b.eq	0x1400076e4  // b.none
   1400076cc:	f9400f08 	ldr	x8, [x24, #24]
   1400076d0:	aa1603e0 	mov	x0, x22
   1400076d4:	aa1403e1 	mov	x1, x20
   1400076d8:	aa1303e2 	mov	x2, x19
   1400076dc:	d63f0100 	blr	x8
   1400076e0:	36000100 	tbz	w0, #0, 0x140007700
   1400076e4:	52800020 	mov	w0, #0x1                   	// #1
   1400076e8:	a9444ff4 	ldp	x20, x19, [sp, #64]
   1400076ec:	a94357f6 	ldp	x22, x21, [sp, #48]
   1400076f0:	a9425ff8 	ldp	x24, x23, [sp, #32]
   1400076f4:	a94167fe 	ldp	x30, x25, [sp, #16]
   1400076f8:	910143ff 	add	sp, sp, #0x50
   1400076fc:	d65f03c0 	ret
   140007700:	aa1f03f3 	mov	x19, xzr
   140007704:	eb1302ff 	cmp	x23, x19
   140007708:	54000120 	b.eq	0x14000772c  // b.none
   14000770c:	f9401308 	ldr	x8, [x24, #32]
   140007710:	aa1603e0 	mov	x0, x22
   140007714:	2a1503e1 	mov	w1, w21
   140007718:	91000673 	add	x19, x19, #0x1
   14000771c:	d63f0100 	blr	x8
   140007720:	34ffff20 	cbz	w0, 0x140007704
   140007724:	d1000668 	sub	x8, x19, #0x1
   140007728:	14000002 	b	0x140007730
   14000772c:	aa1703e8 	mov	x8, x23
   140007730:	eb17011f 	cmp	x8, x23
   140007734:	1a9f27e0 	cset	w0, cc	// cc = lo, ul, last
   140007738:	a9444ff4 	ldp	x20, x19, [sp, #64]
   14000773c:	a94357f6 	ldp	x22, x21, [sp, #48]
   140007740:	a9425ff8 	ldp	x24, x23, [sp, #32]
   140007744:	a94167fe 	ldp	x30, x25, [sp, #16]
   140007748:	910143ff 	add	sp, sp, #0x50
   14000774c:	d65f03c0 	ret
   140007750:	a9402408 	ldp	x8, x9, [x0]
   140007754:	aa0803e0 	mov	x0, x8
   140007758:	f9400d23 	ldr	x3, [x9, #24]
   14000775c:	d61f0060 	br	x3
   140007760:	d10103ff 	sub	sp, sp, #0x40
   140007764:	ad400420 	ldp	q0, q1, [x1]
   140007768:	910003e2 	mov	x2, sp
   14000776c:	f9001bfe 	str	x30, [sp, #48]
   140007770:	3dc00822 	ldr	q2, [x1, #32]
   140007774:	ad0007e0 	stp	q0, q1, [sp]
   140007778:	a9400408 	ldp	x8, x1, [x0]
   14000777c:	3d800be2 	str	q2, [sp, #32]
   140007780:	aa0803e0 	mov	x0, x8
   140007784:	97fffd0d 	bl	0x140006bb8
   140007788:	f9401bfe 	ldr	x30, [sp, #48]
   14000778c:	910103ff 	add	sp, sp, #0x40
   140007790:	d65f03c0 	ret
   140007794:	3940c008 	ldrb	w8, [x0, #48]
   140007798:	53041100 	ubfx	w0, w8, #4, #1
   14000779c:	d65f03c0 	ret
   1400077a0:	3940c008 	ldrb	w8, [x0, #48]
   1400077a4:	53051500 	ubfx	w0, w8, #5, #1
   1400077a8:	d65f03c0 	ret
   1400077ac:	f81e0ffe 	str	x30, [sp, #-32]!
   1400077b0:	a9014ff4 	stp	x20, x19, [sp, #16]
   1400077b4:	aa0003f3 	mov	x19, x0
   1400077b8:	aa0803f4 	mov	x20, x8
   1400077bc:	a9402000 	ldp	x0, x8, [x0]
   1400077c0:	f9400d08 	ldr	x8, [x8, #24]
   1400077c4:	d63f0100 	blr	x8
   1400077c8:	f9000293 	str	x19, [x20]
   1400077cc:	39002280 	strb	w0, [x20, #8]
   1400077d0:	3900269f 	strb	wzr, [x20, #9]
   1400077d4:	a9414ff4 	ldp	x20, x19, [sp, #16]
   1400077d8:	f84207fe 	ldr	x30, [sp], #32
   1400077dc:	d65f03c0 	ret
   1400077e0:	d10183ff 	sub	sp, sp, #0x60
   1400077e4:	a90457f6 	stp	x22, x21, [sp, #64]
   1400077e8:	aa0003f5 	mov	x21, x0
   1400077ec:	a90267fa 	stp	x26, x25, [sp, #32]
   1400077f0:	f9400000 	ldr	x0, [x0]
   1400077f4:	a9466bf9 	ldp	x25, x26, [sp, #96]
   1400077f8:	a9016ffe 	stp	x30, x27, [sp, #16]
   1400077fc:	aa0503f6 	mov	x22, x5
   140007800:	f94006a8 	ldr	x8, [x21, #8]
   140007804:	a9035ff8 	stp	x24, x23, [sp, #48]
   140007808:	f9403bfb 	ldr	x27, [sp, #112]
   14000780c:	a9054ff4 	stp	x20, x19, [sp, #80]
   140007810:	aa0703f3 	mov	x19, x7
   140007814:	aa0603f4 	mov	x20, x6
   140007818:	f9400d08 	ldr	x8, [x8, #24]
   14000781c:	aa0403f7 	mov	x23, x4
   140007820:	aa0303f8 	mov	x24, x3
   140007824:	d63f0100 	blr	x8
   140007828:	390023e0 	strb	w0, [sp, #8]
   14000782c:	910003e0 	mov	x0, sp
   140007830:	aa1803e1 	mov	x1, x24
   140007834:	aa1703e2 	mov	x2, x23
   140007838:	aa1603e3 	mov	x3, x22
   14000783c:	aa1403e4 	mov	x4, x20
   140007840:	f90003f5 	str	x21, [sp]
   140007844:	390027ff 	strb	wzr, [sp, #9]
   140007848:	97fffb67 	bl	0x1400065e4
   14000784c:	910003e0 	mov	x0, sp
   140007850:	aa1303e1 	mov	x1, x19
   140007854:	aa1903e2 	mov	x2, x25
   140007858:	aa1a03e3 	mov	x3, x26
   14000785c:	aa1b03e4 	mov	x4, x27
   140007860:	97fffb61 	bl	0x1400065e4
   140007864:	394027e8 	ldrb	w8, [sp, #9]
   140007868:	394023e0 	ldrb	w0, [sp, #8]
   14000786c:	34000248 	cbz	w8, 0x1400078b4
   140007870:	34000060 	cbz	w0, 0x14000787c
   140007874:	52800020 	mov	w0, #0x1                   	// #1
   140007878:	1400000f 	b	0x1400078b4
   14000787c:	f94003e8 	ldr	x8, [sp]
   140007880:	3940c109 	ldrb	w9, [x8, #48]
   140007884:	371000c9 	tbnz	w9, #2, 0x14000789c
   140007888:	a9402500 	ldp	x0, x9, [x8]
   14000788c:	d0000061 	adrp	x1, 0x140015000
   140007890:	912bdc21 	add	x1, x1, #0xaf7
   140007894:	52800042 	mov	w2, #0x2                   	// #2
   140007898:	14000005 	b	0x1400078ac
   14000789c:	a9402500 	ldp	x0, x9, [x8]
   1400078a0:	d0000061 	adrp	x1, 0x140015000
   1400078a4:	912bd821 	add	x1, x1, #0xaf6
   1400078a8:	52800022 	mov	w2, #0x1                   	// #1
   1400078ac:	f9400d28 	ldr	x8, [x9, #24]
   1400078b0:	d63f0100 	blr	x8
   1400078b4:	a9454ff4 	ldp	x20, x19, [sp, #80]
   1400078b8:	7100001f 	cmp	w0, #0x0
   1400078bc:	a94457f6 	ldp	x22, x21, [sp, #64]
   1400078c0:	1a9f07e0 	cset	w0, ne	// ne = any
   1400078c4:	a9435ff8 	ldp	x24, x23, [sp, #48]
   1400078c8:	a94267fa 	ldp	x26, x25, [sp, #32]
   1400078cc:	a9416ffe 	ldp	x30, x27, [sp, #16]
   1400078d0:	910183ff 	add	sp, sp, #0x60
   1400078d4:	d65f03c0 	ret
   1400078d8:	d10283ff 	sub	sp, sp, #0xa0
   1400078dc:	a94e23e9 	ldp	x9, x8, [sp, #224]
   1400078e0:	a9075ff8 	stp	x24, x23, [sp, #112]
   1400078e4:	aa0003f8 	mov	x24, x0
   1400078e8:	a90477fe 	stp	x30, x29, [sp, #64]
   1400078ec:	f9400000 	ldr	x0, [x0]
   1400078f0:	a9056ffc 	stp	x28, x27, [sp, #80]
   1400078f4:	aa0303f7 	mov	x23, x3
   1400078f8:	a90227e8 	stp	x8, x9, [sp, #32]
   1400078fc:	f9407be8 	ldr	x8, [sp, #240]
   140007900:	a90667fa 	stp	x26, x25, [sp, #96]
   140007904:	a9094ff4 	stp	x20, x19, [sp, #144]
   140007908:	aa0603f4 	mov	x20, x6
   14000790c:	f9000fe8 	str	x8, [sp, #24]
   140007910:	f9406fe8 	ldr	x8, [sp, #216]
   140007914:	a94c77fc 	ldp	x28, x29, [sp, #192]
   140007918:	a90857f6 	stp	x22, x21, [sp, #128]
   14000791c:	aa0503f5 	mov	x21, x5
   140007920:	a900a3e7 	stp	x7, x8, [sp, #8]
   140007924:	f9406be8 	ldr	x8, [sp, #208]
   140007928:	a94a67fb 	ldp	x27, x25, [sp, #160]
   14000792c:	aa0403f6 	mov	x22, x4
   140007930:	f90003e8 	str	x8, [sp]
   140007934:	f9400708 	ldr	x8, [x24, #8]
   140007938:	a94b4ffa 	ldp	x26, x19, [sp, #176]
   14000793c:	f9400d08 	ldr	x8, [x8, #24]
   140007940:	d63f0100 	blr	x8
   140007944:	3900e3e0 	strb	w0, [sp, #56]
   140007948:	9100c3e0 	add	x0, sp, #0x30
   14000794c:	aa1703e1 	mov	x1, x23
   140007950:	aa1603e2 	mov	x2, x22
   140007954:	aa1503e3 	mov	x3, x21
   140007958:	aa1403e4 	mov	x4, x20
   14000795c:	f9001bf8 	str	x24, [sp, #48]
   140007960:	3900e7ff 	strb	wzr, [sp, #57]
   140007964:	97fffb20 	bl	0x1400065e4
   140007968:	9100c3e0 	add	x0, sp, #0x30
   14000796c:	f94007e1 	ldr	x1, [sp, #8]
   140007970:	aa1b03e2 	mov	x2, x27
   140007974:	aa1903e3 	mov	x3, x25
   140007978:	aa1a03e4 	mov	x4, x26
   14000797c:	97fffb1a 	bl	0x1400065e4
   140007980:	9100c3e0 	add	x0, sp, #0x30
   140007984:	aa1303e1 	mov	x1, x19
   140007988:	aa1c03e2 	mov	x2, x28
   14000798c:	aa1d03e3 	mov	x3, x29
   140007990:	f94003e4 	ldr	x4, [sp]
   140007994:	97fffb14 	bl	0x1400065e4
   140007998:	a94113e1 	ldp	x1, x4, [sp, #16]
   14000799c:	9100c3e0 	add	x0, sp, #0x30
   1400079a0:	a9420be3 	ldp	x3, x2, [sp, #32]
   1400079a4:	97fffb10 	bl	0x1400065e4
   1400079a8:	3940e7e8 	ldrb	w8, [sp, #57]
   1400079ac:	3940e3e0 	ldrb	w0, [sp, #56]
   1400079b0:	34000248 	cbz	w8, 0x1400079f8
   1400079b4:	34000060 	cbz	w0, 0x1400079c0
   1400079b8:	52800020 	mov	w0, #0x1                   	// #1
   1400079bc:	1400000f 	b	0x1400079f8
   1400079c0:	f9401be8 	ldr	x8, [sp, #48]
   1400079c4:	3940c109 	ldrb	w9, [x8, #48]
   1400079c8:	371000c9 	tbnz	w9, #2, 0x1400079e0
   1400079cc:	a9402500 	ldp	x0, x9, [x8]
   1400079d0:	d0000061 	adrp	x1, 0x140015000
   1400079d4:	912bdc21 	add	x1, x1, #0xaf7
   1400079d8:	52800042 	mov	w2, #0x2                   	// #2
   1400079dc:	14000005 	b	0x1400079f0
   1400079e0:	a9402500 	ldp	x0, x9, [x8]
   1400079e4:	d0000061 	adrp	x1, 0x140015000
   1400079e8:	912bd821 	add	x1, x1, #0xaf6
   1400079ec:	52800022 	mov	w2, #0x1                   	// #1
   1400079f0:	f9400d28 	ldr	x8, [x9, #24]
   1400079f4:	d63f0100 	blr	x8
   1400079f8:	a9494ff4 	ldp	x20, x19, [sp, #144]
   1400079fc:	7100001f 	cmp	w0, #0x0
   140007a00:	a94857f6 	ldp	x22, x21, [sp, #128]
   140007a04:	1a9f07e0 	cset	w0, ne	// ne = any
   140007a08:	a9475ff8 	ldp	x24, x23, [sp, #112]
   140007a0c:	a94667fa 	ldp	x26, x25, [sp, #96]
   140007a10:	a9456ffc 	ldp	x28, x27, [sp, #80]
   140007a14:	a94477fe 	ldp	x30, x29, [sp, #64]
   140007a18:	910283ff 	add	sp, sp, #0xa0
   140007a1c:	d65f03c0 	ret
   140007a20:	d101c3ff 	sub	sp, sp, #0x70
   140007a24:	eb06009f 	cmp	x4, x6
   140007a28:	a9041bfe 	stp	x30, x6, [sp, #64]
   140007a2c:	a90557f6 	stp	x22, x21, [sp, #80]
   140007a30:	a9064ff4 	stp	x20, x19, [sp, #96]
   140007a34:	f90007e4 	str	x4, [sp, #8]
   140007a38:	54000661 	b.ne	0x140007b04  // b.any
   140007a3c:	aa0003f6 	mov	x22, x0
   140007a40:	aa0503f3 	mov	x19, x5
   140007a44:	a9402000 	ldp	x0, x8, [x0]
   140007a48:	aa0403f4 	mov	x20, x4
   140007a4c:	aa0303f5 	mov	x21, x3
   140007a50:	f9400d08 	ldr	x8, [x8, #24]
   140007a54:	d63f0100 	blr	x8
   140007a58:	f9000bf6 	str	x22, [sp, #16]
   140007a5c:	390063e0 	strb	w0, [sp, #24]
   140007a60:	390067ff 	strb	wzr, [sp, #25]
   140007a64:	b4000434 	cbz	x20, 0x140007ae8
   140007a68:	910022b6 	add	x22, x21, #0x8
   140007a6c:	d0000075 	adrp	x21, 0x140015000
   140007a70:	9131a2b5 	add	x21, x21, #0xc68
   140007a74:	a97f8ac1 	ldp	x1, x2, [x22, #-8]
   140007a78:	910043e0 	add	x0, sp, #0x10
   140007a7c:	aa1303e3 	mov	x3, x19
   140007a80:	aa1503e4 	mov	x4, x21
   140007a84:	97fffad8 	bl	0x1400065e4
   140007a88:	910042d6 	add	x22, x22, #0x10
   140007a8c:	f1000694 	subs	x20, x20, #0x1
   140007a90:	91004273 	add	x19, x19, #0x10
   140007a94:	54ffff01 	b.ne	0x140007a74  // b.any
   140007a98:	394067e8 	ldrb	w8, [sp, #25]
   140007a9c:	394063e0 	ldrb	w0, [sp, #24]
   140007aa0:	34000248 	cbz	w8, 0x140007ae8
   140007aa4:	34000060 	cbz	w0, 0x140007ab0
   140007aa8:	52800020 	mov	w0, #0x1                   	// #1
   140007aac:	1400000f 	b	0x140007ae8
   140007ab0:	f9400be8 	ldr	x8, [sp, #16]
   140007ab4:	3940c109 	ldrb	w9, [x8, #48]
   140007ab8:	371000c9 	tbnz	w9, #2, 0x140007ad0
   140007abc:	a9402500 	ldp	x0, x9, [x8]
   140007ac0:	d0000061 	adrp	x1, 0x140015000
   140007ac4:	912bdc21 	add	x1, x1, #0xaf7
   140007ac8:	52800042 	mov	w2, #0x2                   	// #2
   140007acc:	14000005 	b	0x140007ae0
   140007ad0:	a9402500 	ldp	x0, x9, [x8]
   140007ad4:	d0000061 	adrp	x1, 0x140015000
   140007ad8:	912bd821 	add	x1, x1, #0xaf6
   140007adc:	52800022 	mov	w2, #0x1                   	// #1
   140007ae0:	f9400d28 	ldr	x8, [x9, #24]
   140007ae4:	d63f0100 	blr	x8
   140007ae8:	a9464ff4 	ldp	x20, x19, [sp, #96]
   140007aec:	7100001f 	cmp	w0, #0x0
   140007af0:	a94557f6 	ldp	x22, x21, [sp, #80]
   140007af4:	1a9f07e0 	cset	w0, ne	// ne = any
   140007af8:	f94023fe 	ldr	x30, [sp, #64]
   140007afc:	9101c3ff 	add	sp, sp, #0x70
   140007b00:	d65f03c0 	ret
   140007b04:	910023e0 	add	x0, sp, #0x8
   140007b08:	910123e1 	add	x1, sp, #0x48
   140007b0c:	910043e2 	add	x2, sp, #0x10
   140007b10:	f90013ff 	str	xzr, [sp, #32]
   140007b14:	94000a3c 	bl	0x14000a404
   140007b18:	d4200020 	brk	#0x1
   140007b1c:	d10143ff 	sub	sp, sp, #0x50
   140007b20:	a90357f6 	stp	x22, x21, [sp, #48]
   140007b24:	aa0003f5 	mov	x21, x0
   140007b28:	a9402000 	ldp	x0, x8, [x0]
   140007b2c:	f90013fe 	str	x30, [sp, #32]
   140007b30:	aa0203f6 	mov	x22, x2
   140007b34:	a9044ff4 	stp	x20, x19, [sp, #64]
   140007b38:	aa0403f3 	mov	x19, x4
   140007b3c:	aa0303f4 	mov	x20, x3
   140007b40:	f9400d08 	ldr	x8, [x8, #24]
   140007b44:	d63f0100 	blr	x8
   140007b48:	f10002df 	cmp	x22, #0x0
   140007b4c:	390063e0 	strb	w0, [sp, #24]
   140007b50:	1a9f17e8 	cset	w8, eq	// eq = none
   140007b54:	910023e0 	add	x0, sp, #0x8
   140007b58:	aa1403e1 	mov	x1, x20
   140007b5c:	aa1303e2 	mov	x2, x19
   140007b60:	a900d7ff 	stp	xzr, x21, [sp, #8]
   140007b64:	390067e8 	strb	w8, [sp, #25]
   140007b68:	97fffb25 	bl	0x1400067fc
   140007b6c:	f94007e8 	ldr	x8, [sp, #8]
   140007b70:	394063f3 	ldrb	w19, [sp, #24]
   140007b74:	b4000348 	cbz	x8, 0x140007bdc
   140007b78:	34000073 	cbz	w19, 0x140007b84
   140007b7c:	52800033 	mov	w19, #0x1                   	// #1
   140007b80:	14000017 	b	0x140007bdc
   140007b84:	f9400bf4 	ldr	x20, [sp, #16]
   140007b88:	f100051f 	cmp	x8, #0x1
   140007b8c:	540001a1 	b.ne	0x140007bc0  // b.any
   140007b90:	394067e8 	ldrb	w8, [sp, #25]
   140007b94:	34000168 	cbz	w8, 0x140007bc0
   140007b98:	3940c288 	ldrb	w8, [x20, #48]
   140007b9c:	37100128 	tbnz	w8, #2, 0x140007bc0
   140007ba0:	a9402280 	ldp	x0, x8, [x20]
   140007ba4:	d0000061 	adrp	x1, 0x140015000
   140007ba8:	912bf021 	add	x1, x1, #0xafc
   140007bac:	52800022 	mov	w2, #0x1                   	// #1
   140007bb0:	52800033 	mov	w19, #0x1                   	// #1
   140007bb4:	f9400d08 	ldr	x8, [x8, #24]
   140007bb8:	d63f0100 	blr	x8
   140007bbc:	35000100 	cbnz	w0, 0x140007bdc
   140007bc0:	a9402280 	ldp	x0, x8, [x20]
   140007bc4:	d0000061 	adrp	x1, 0x140015000
   140007bc8:	91226c21 	add	x1, x1, #0x89b
   140007bcc:	52800022 	mov	w2, #0x1                   	// #1
   140007bd0:	f9400d08 	ldr	x8, [x8, #24]
   140007bd4:	d63f0100 	blr	x8
   140007bd8:	2a0003f3 	mov	w19, w0
   140007bdc:	7100027f 	cmp	w19, #0x0
   140007be0:	f94013fe 	ldr	x30, [sp, #32]
   140007be4:	a9444ff4 	ldp	x20, x19, [sp, #64]
   140007be8:	1a9f07e0 	cset	w0, ne	// ne = any
   140007bec:	a94357f6 	ldp	x22, x21, [sp, #48]
   140007bf0:	910143ff 	add	sp, sp, #0x50
   140007bf4:	d65f03c0 	ret
   140007bf8:	d10283ff 	sub	sp, sp, #0xa0
   140007bfc:	a9094ff4 	stp	x20, x19, [sp, #144]
   140007c00:	a9402054 	ldp	x20, x8, [x2]
   140007c04:	a90283e1 	stp	x1, x0, [sp, #40]
   140007c08:	52800441 	mov	w1, #0x22                  	// #34
   140007c0c:	a90477fe 	stp	x30, x29, [sp, #64]
   140007c10:	a9056ffc 	stp	x28, x27, [sp, #80]
   140007c14:	aa1403e0 	mov	x0, x20
   140007c18:	a90667fa 	stp	x26, x25, [sp, #96]
   140007c1c:	f9401102 	ldr	x2, [x8, #32]
   140007c20:	a9075ff8 	stp	x24, x23, [sp, #112]
   140007c24:	a90857f6 	stp	x22, x21, [sp, #128]
   140007c28:	f90013e8 	str	x8, [sp, #32]
   140007c2c:	f9001fe2 	str	x2, [sp, #56]
   140007c30:	d63f0040 	blr	x2
   140007c34:	36000140 	tbz	w0, #0, 0x140007c5c
   140007c38:	a9494ff4 	ldp	x20, x19, [sp, #144]
   140007c3c:	52800020 	mov	w0, #0x1                   	// #1
   140007c40:	a94857f6 	ldp	x22, x21, [sp, #128]
   140007c44:	a9475ff8 	ldp	x24, x23, [sp, #112]
   140007c48:	a94667fa 	ldp	x26, x25, [sp, #96]
   140007c4c:	a9456ffc 	ldp	x28, x27, [sp, #80]
   140007c50:	a94477fe 	ldp	x30, x29, [sp, #64]
   140007c54:	910283ff 	add	sp, sp, #0xa0
   140007c58:	d65f03c0 	ret
   140007c5c:	f94017f7 	ldr	x23, [sp, #40]
   140007c60:	b4001bb7 	cbz	x23, 0x140007fd4
   140007c64:	f9401bf5 	ldr	x21, [sp, #48]
   140007c68:	aa1f03f8 	mov	x24, xzr
   140007c6c:	aa1f03e3 	mov	x3, xzr
   140007c70:	5280007c 	mov	w28, #0x3                   	// #3
   140007c74:	f000007d 	adrp	x29, 0x140016000
   140007c78:	91239bbd 	add	x29, x29, #0x8e6
   140007c7c:	8b1702a8 	add	x8, x21, x23
   140007c80:	aa1503ec 	mov	x12, x21
   140007c84:	f90007e8 	str	x8, [sp, #8]
   140007c88:	52800048 	mov	w8, #0x2                   	// #2
   140007c8c:	72a00228 	movk	w8, #0x11, lsl #16
   140007c90:	51000d1b 	sub	w27, w8, #0x3
   140007c94:	5100051a 	sub	w26, w8, #0x1
   140007c98:	aa0c03eb 	mov	x11, x12
   140007c9c:	38c01588 	ldrsb	w8, [x12], #1
   140007ca0:	12001d09 	and	w9, w8, #0xff
   140007ca4:	37f800c8 	tbnz	w8, #31, 0x140007cbc
   140007ca8:	2a0903f6 	mov	w22, w9
   140007cac:	7100893f 	cmp	w9, #0x22
   140007cb0:	a9012fec 	stp	x12, x11, [sp, #16]
   140007cb4:	540003a9 	b.ls	0x140007d28  // b.plast
   140007cb8:	1400003b 	b	0x140007da4
   140007cbc:	3940056a 	ldrb	w10, [x11, #1]
   140007cc0:	12001128 	and	w8, w9, #0x1f
   140007cc4:	71037d3f 	cmp	w9, #0xdf
   140007cc8:	12001556 	and	w22, w10, #0x3f
   140007ccc:	54000249 	b.ls	0x140007d14  // b.plast
   140007cd0:	3940096a 	ldrb	w10, [x11, #2]
   140007cd4:	91000d6c 	add	x12, x11, #0x3
   140007cd8:	7103c13f 	cmp	w9, #0xf0
   140007cdc:	1200154a 	and	w10, w10, #0x3f
   140007ce0:	331a16ca 	bfi	w10, w22, #6, #6
   140007ce4:	54000563 	b.cc	0x140007d90  // b.lo, b.ul, b.last
   140007ce8:	39400189 	ldrb	w9, [x12]
   140007cec:	12001536 	and	w22, w9, #0x3f
   140007cf0:	331a2d56 	bfi	w22, w10, #6, #12
   140007cf4:	330e0916 	bfi	w22, w8, #18, #3
   140007cf8:	714442df 	cmp	w22, #0x110, lsl #12
   140007cfc:	540015c0 	b.eq	0x140007fb4  // b.none
   140007d00:	9100116c 	add	x12, x11, #0x4
   140007d04:	71008adf 	cmp	w22, #0x22
   140007d08:	a9012fec 	stp	x12, x11, [sp, #16]
   140007d0c:	540000e9 	b.ls	0x140007d28  // b.plast
   140007d10:	14000025 	b	0x140007da4
   140007d14:	9100096c 	add	x12, x11, #0x2
   140007d18:	331a1116 	bfi	w22, w8, #6, #5
   140007d1c:	71008adf 	cmp	w22, #0x22
   140007d20:	a9012fec 	stp	x12, x11, [sp, #16]
   140007d24:	54000408 	b.hi	0x140007da4  // b.pmore
   140007d28:	2a1603e8 	mov	w8, w22
   140007d2c:	f000006b 	adrp	x11, 0x140016000
   140007d30:	91230d6b 	add	x11, x11, #0x8c3
   140007d34:	52800059 	mov	w25, #0x2                   	// #2
   140007d38:	52800613 	mov	w19, #0x30                  	// #48
   140007d3c:	72a00239 	movk	w25, #0x11, lsl #16
   140007d40:	10000089 	adr	x9, 0x140007d50
   140007d44:	3868696a 	ldrb	w10, [x11, x8]
   140007d48:	8b0a0929 	add	x9, x9, x10, lsl #2
   140007d4c:	d61f0120 	br	x9
   140007d50:	52800059 	mov	w25, #0x2                   	// #2
   140007d54:	52800e93 	mov	w19, #0x74                  	// #116
   140007d58:	72a00239 	movk	w25, #0x11, lsl #16
   140007d5c:	1400002d 	b	0x140007e10
   140007d60:	52800059 	mov	w25, #0x2                   	// #2
   140007d64:	52800dd3 	mov	w19, #0x6e                  	// #110
   140007d68:	72a00239 	movk	w25, #0x11, lsl #16
   140007d6c:	14000029 	b	0x140007e10
   140007d70:	52800059 	mov	w25, #0x2                   	// #2
   140007d74:	52800e53 	mov	w19, #0x72                  	// #114
   140007d78:	72a00239 	movk	w25, #0x11, lsl #16
   140007d7c:	14000025 	b	0x140007e10
   140007d80:	52800059 	mov	w25, #0x2                   	// #2
   140007d84:	2a1603f3 	mov	w19, w22
   140007d88:	72a00239 	movk	w25, #0x11, lsl #16
   140007d8c:	14000021 	b	0x140007e10
   140007d90:	3314110a 	bfi	w10, w8, #12, #5
   140007d94:	2a0a03f6 	mov	w22, w10
   140007d98:	7100895f 	cmp	w10, #0x22
   140007d9c:	a9012fec 	stp	x12, x11, [sp, #16]
   140007da0:	54fffc49 	b.ls	0x140007d28  // b.plast
   140007da4:	52800059 	mov	w25, #0x2                   	// #2
   140007da8:	2a1603f3 	mov	w19, w22
   140007dac:	72a00239 	movk	w25, #0x11, lsl #16
   140007db0:	710172df 	cmp	w22, #0x5c
   140007db4:	540002e0 	b.eq	0x140007e10  // b.none
   140007db8:	2a1603e0 	mov	w0, w22
   140007dbc:	aa0303f5 	mov	x21, x3
   140007dc0:	940006d2 	bl	0x140009908
   140007dc4:	37000080 	tbnz	w0, #0, 0x140007dd4
   140007dc8:	2a1603e0 	mov	w0, w22
   140007dcc:	94000496 	bl	0x140009024
   140007dd0:	37000060 	tbnz	w0, #0, 0x140007ddc
   140007dd4:	6b1a02df 	cmp	w22, w26
   140007dd8:	54000101 	b.ne	0x140007df8  // b.any
   140007ddc:	a94127ec 	ldp	x12, x9, [sp, #16]
   140007de0:	cb0902a8 	sub	x8, x21, x9
   140007de4:	8b0c0103 	add	x3, x8, x12
   140007de8:	f94007e8 	ldr	x8, [sp, #8]
   140007dec:	eb08019f 	cmp	x12, x8
   140007df0:	54fff541 	b.ne	0x140007c98  // b.any
   140007df4:	14000070 	b	0x140007fb4
   140007df8:	320002c8 	orr	w8, w22, #0x1
   140007dfc:	2a1603f9 	mov	w25, w22
   140007e00:	5ac01108 	clz	w8, w8
   140007e04:	aa1503e3 	mov	x3, x21
   140007e08:	53027d08 	lsr	w8, w8, #2
   140007e0c:	52000913 	eor	w19, w8, #0x7
   140007e10:	eb180062 	subs	x2, x3, x24
   140007e14:	540011a3 	b.cc	0x140008048  // b.lo, b.ul, b.last
   140007e18:	b4000138 	cbz	x24, 0x140007e3c
   140007e1c:	eb17031f 	cmp	x24, x23
   140007e20:	540000c2 	b.cs	0x140007e38  // b.hs, b.nlast
   140007e24:	f9401be8 	ldr	x8, [sp, #48]
   140007e28:	38f86908 	ldrsb	w8, [x8, x24]
   140007e2c:	3101011f 	cmn	w8, #0x40
   140007e30:	5400006a 	b.ge	0x140007e3c  // b.tcont
   140007e34:	14000085 	b	0x140008048
   140007e38:	54001081 	b.ne	0x140008048  // b.any
   140007e3c:	b4000123 	cbz	x3, 0x140007e60
   140007e40:	eb17007f 	cmp	x3, x23
   140007e44:	540000c2 	b.cs	0x140007e5c  // b.hs, b.nlast
   140007e48:	f9401be8 	ldr	x8, [sp, #48]
   140007e4c:	38e36908 	ldrsb	w8, [x8, x3]
   140007e50:	3101051f 	cmn	w8, #0x41
   140007e54:	5400006c 	b.gt	0x140007e60
   140007e58:	1400007c 	b	0x140008048
   140007e5c:	54000f61 	b.ne	0x140008048  // b.any
   140007e60:	f9401be8 	ldr	x8, [sp, #48]
   140007e64:	aa1403e0 	mov	x0, x20
   140007e68:	aa0303f5 	mov	x21, x3
   140007e6c:	8b180101 	add	x1, x8, x24
   140007e70:	f94013e8 	ldr	x8, [sp, #32]
   140007e74:	f9400d08 	ldr	x8, [x8, #24]
   140007e78:	d63f0100 	blr	x8
   140007e7c:	3707ede0 	tbnz	w0, #0, 0x140007c38
   140007e80:	2a1303f8 	mov	w24, w19
   140007e84:	528000a8 	mov	w8, #0x5                   	// #5
   140007e88:	14000014 	b	0x140007ed8
   140007e8c:	531e0b09 	ubfiz	w9, w24, #2, #3
   140007e90:	52800aeb 	mov	w11, #0x57                  	// #87
   140007e94:	5280060c 	mov	w12, #0x30                  	// #48
   140007e98:	d100070a 	sub	x10, x24, #0x1
   140007e9c:	1ac92729 	lsr	w9, w25, w9
   140007ea0:	12000d29 	and	w9, w9, #0xf
   140007ea4:	7100293f 	cmp	w9, #0xa
   140007ea8:	1a8b318b 	csel	w11, w12, w11, cc	// cc = lo, ul, last
   140007eac:	f100031f 	cmp	x24, #0x0
   140007eb0:	0b090161 	add	w1, w11, w9
   140007eb4:	1a9f1513 	csinc	w19, w8, wzr, ne	// ne = any
   140007eb8:	9a8a03f8 	csel	x24, xzr, x10, eq	// eq = none
   140007ebc:	2a1903f7 	mov	w23, w25
   140007ec0:	aa1403e0 	mov	x0, x20
   140007ec4:	f9401fe2 	ldr	x2, [sp, #56]
   140007ec8:	d63f0040 	blr	x2
   140007ecc:	2a1703f9 	mov	w25, w23
   140007ed0:	2a1303e8 	mov	w8, w19
   140007ed4:	3707eb20 	tbnz	w0, #0, 0x140007c38
   140007ed8:	51444329 	sub	w9, w25, #0x110, lsl #12
   140007edc:	6b1b033f 	cmp	w25, w27
   140007ee0:	1a9c8129 	csel	w9, w9, w28, hi	// hi = pmore
   140007ee4:	52800b81 	mov	w1, #0x5c                  	// #92
   140007ee8:	2a1a03f7 	mov	w23, w26
   140007eec:	2a0803f3 	mov	w19, w8
   140007ef0:	10fffe8a 	adr	x10, 0x140007ec0
   140007ef4:	38696bab 	ldrb	w11, [x29, x9]
   140007ef8:	8b0b094a 	add	x10, x10, x11, lsl #2
   140007efc:	d61f0140 	br	x10
   140007f00:	7144431f 	cmp	w24, #0x110, lsl #12
   140007f04:	54000300 	b.eq	0x140007f64  // b.none
   140007f08:	52a00237 	mov	w23, #0x110000              	// #1114112
   140007f0c:	2a1803e1 	mov	w1, w24
   140007f10:	2a0803f3 	mov	w19, w8
   140007f14:	17ffffeb 	b	0x140007ec0
   140007f18:	92401d09 	and	x9, x8, #0xff
   140007f1c:	f000006c 	adrp	x12, 0x140016000
   140007f20:	9123a98c 	add	x12, x12, #0x8ea
   140007f24:	52800fa1 	mov	w1, #0x7d                  	// #125
   140007f28:	2a1f03f3 	mov	w19, wzr
   140007f2c:	2a1903f7 	mov	w23, w25
   140007f30:	10fffaea 	adr	x10, 0x140007e8c
   140007f34:	3869698b 	ldrb	w11, [x12, x9]
   140007f38:	8b0b094a 	add	x10, x10, x11, lsl #2
   140007f3c:	d61f0140 	br	x10
   140007f40:	52800053 	mov	w19, #0x2                   	// #2
   140007f44:	52800f61 	mov	w1, #0x7b                  	// #123
   140007f48:	17ffffdd 	b	0x140007ebc
   140007f4c:	52800073 	mov	w19, #0x3                   	// #3
   140007f50:	52800ea1 	mov	w1, #0x75                  	// #117
   140007f54:	17ffffda 	b	0x140007ebc
   140007f58:	52800093 	mov	w19, #0x4                   	// #4
   140007f5c:	52800b81 	mov	w1, #0x5c                  	// #92
   140007f60:	17ffffd7 	b	0x140007ebc
   140007f64:	710202df 	cmp	w22, #0x80
   140007f68:	540000a2 	b.cs	0x140007f7c  // b.hs, b.nlast
   140007f6c:	a94127ec 	ldp	x12, x9, [sp, #16]
   140007f70:	52800028 	mov	w8, #0x1                   	// #1
   140007f74:	f94017f7 	ldr	x23, [sp, #40]
   140007f78:	14000009 	b	0x140007f9c
   140007f7c:	a94127ec 	ldp	x12, x9, [sp, #16]
   140007f80:	712002df 	cmp	w22, #0x800
   140007f84:	f94017f7 	ldr	x23, [sp, #40]
   140007f88:	54000062 	b.cs	0x140007f94  // b.hs, b.nlast
   140007f8c:	52800048 	mov	w8, #0x2                   	// #2
   140007f90:	14000003 	b	0x140007f9c
   140007f94:	714042df 	cmp	w22, #0x10, lsl #12
   140007f98:	9a9c3788 	cinc	x8, x28, cs	// cs = hs, nlast
   140007f9c:	8b150118 	add	x24, x8, x21
   140007fa0:	cb0902a8 	sub	x8, x21, x9
   140007fa4:	8b0c0103 	add	x3, x8, x12
   140007fa8:	f94007e8 	ldr	x8, [sp, #8]
   140007fac:	eb08019f 	cmp	x12, x8
   140007fb0:	54ffe741 	b.ne	0x140007c98  // b.any
   140007fb4:	b4000138 	cbz	x24, 0x140007fd8
   140007fb8:	eb17031f 	cmp	x24, x23
   140007fbc:	54000342 	b.cs	0x140008024  // b.hs, b.nlast
   140007fc0:	f9401be8 	ldr	x8, [sp, #48]
   140007fc4:	38f86908 	ldrsb	w8, [x8, x24]
   140007fc8:	3101051f 	cmn	w8, #0x41
   140007fcc:	5400006c 	b.gt	0x140007fd8
   140007fd0:	14000016 	b	0x140008028
   140007fd4:	aa1f03f8 	mov	x24, xzr
   140007fd8:	f9401be8 	ldr	x8, [sp, #48]
   140007fdc:	cb1802e2 	sub	x2, x23, x24
   140007fe0:	aa1403e0 	mov	x0, x20
   140007fe4:	8b180101 	add	x1, x8, x24
   140007fe8:	f94013e8 	ldr	x8, [sp, #32]
   140007fec:	f9400d08 	ldr	x8, [x8, #24]
   140007ff0:	d63f0100 	blr	x8
   140007ff4:	3707e220 	tbnz	w0, #0, 0x140007c38
   140007ff8:	aa1403e0 	mov	x0, x20
   140007ffc:	f9401fe2 	ldr	x2, [sp, #56]
   140008000:	a9494ff4 	ldp	x20, x19, [sp, #144]
   140008004:	52800441 	mov	w1, #0x22                  	// #34
   140008008:	a94857f6 	ldp	x22, x21, [sp, #128]
   14000800c:	a9475ff8 	ldp	x24, x23, [sp, #112]
   140008010:	a94667fa 	ldp	x26, x25, [sp, #96]
   140008014:	a9456ffc 	ldp	x28, x27, [sp, #80]
   140008018:	a94477fe 	ldp	x30, x29, [sp, #64]
   14000801c:	910283ff 	add	sp, sp, #0xa0
   140008020:	d61f0040 	br	x2
   140008024:	54fffda0 	b.eq	0x140007fd8  // b.none
   140008028:	b0000064 	adrp	x4, 0x140015000
   14000802c:	91328084 	add	x4, x4, #0xca0
   140008030:	f9401be0 	ldr	x0, [sp, #48]
   140008034:	aa1703e1 	mov	x1, x23
   140008038:	aa1803e2 	mov	x2, x24
   14000803c:	aa1703e3 	mov	x3, x23
   140008040:	9400096a 	bl	0x14000a5e8
   140008044:	d4200020 	brk	#0x1
   140008048:	b0000064 	adrp	x4, 0x140015000
   14000804c:	91322084 	add	x4, x4, #0xc88
   140008050:	f9401be0 	ldr	x0, [sp, #48]
   140008054:	aa1703e1 	mov	x1, x23
   140008058:	aa1803e2 	mov	x2, x24
   14000805c:	94000963 	bl	0x14000a5e8
   140008060:	d4200020 	brk	#0x1
   140008064:	aa0103e8 	mov	x8, x1
   140008068:	aa0003e1 	mov	x1, x0
   14000806c:	aa0203e0 	mov	x0, x2
   140008070:	aa0803e2 	mov	x2, x8
   140008074:	17fffc93 	b	0x1400072c0
   140008078:	d101c3ff 	sub	sp, sp, #0x70
   14000807c:	a9064ff4 	stp	x20, x19, [sp, #96]
   140008080:	aa0003f4 	mov	x20, x0
   140008084:	a9402033 	ldp	x19, x8, [x1]
   140008088:	528004e1 	mov	w1, #0x27                  	// #39
   14000808c:	a90177fe 	stp	x30, x29, [sp, #16]
   140008090:	a9026ffc 	stp	x28, x27, [sp, #32]
   140008094:	a90367fa 	stp	x26, x25, [sp, #48]
   140008098:	aa1303e0 	mov	x0, x19
   14000809c:	a9045ff8 	stp	x24, x23, [sp, #64]
   1400080a0:	f9401102 	ldr	x2, [x8, #32]
   1400080a4:	a90557f6 	stp	x22, x21, [sp, #80]
   1400080a8:	f90007e2 	str	x2, [sp, #8]
   1400080ac:	d63f0040 	blr	x2
   1400080b0:	36000140 	tbz	w0, #0, 0x1400080d8
   1400080b4:	a9464ff4 	ldp	x20, x19, [sp, #96]
   1400080b8:	52800020 	mov	w0, #0x1                   	// #1
   1400080bc:	a94557f6 	ldp	x22, x21, [sp, #80]
   1400080c0:	a9445ff8 	ldp	x24, x23, [sp, #64]
   1400080c4:	a94367fa 	ldp	x26, x25, [sp, #48]
   1400080c8:	a9426ffc 	ldp	x28, x27, [sp, #32]
   1400080cc:	a94177fe 	ldp	x30, x29, [sp, #16]
   1400080d0:	9101c3ff 	add	sp, sp, #0x70
   1400080d4:	d65f03c0 	ret
   1400080d8:	b9400294 	ldr	w20, [x20]
   1400080dc:	52800057 	mov	w23, #0x2                   	// #2
   1400080e0:	52800048 	mov	w8, #0x2                   	// #2
   1400080e4:	72a00237 	movk	w23, #0x11, lsl #16
   1400080e8:	72a00228 	movk	w8, #0x11, lsl #16
   1400080ec:	71009e9f 	cmp	w20, #0x27
   1400080f0:	54000148 	b.hi	0x140008118  // b.pmore
   1400080f4:	d000006a 	adrp	x10, 0x140016000
   1400080f8:	9123c14a 	add	x10, x10, #0x8f0
   1400080fc:	52800609 	mov	w9, #0x30                  	// #48
   140008100:	1000008b 	adr	x11, 0x140008110
   140008104:	3874694c 	ldrb	w12, [x10, x20]
   140008108:	8b0c096b 	add	x11, x11, x12, lsl #2
   14000810c:	d61f0160 	br	x11
   140008110:	52800e89 	mov	w9, #0x74                  	// #116
   140008114:	14000017 	b	0x140008170
   140008118:	7101729f 	cmp	w20, #0x5c
   14000811c:	54000061 	b.ne	0x140008128  // b.any
   140008120:	2a1403e9 	mov	w9, w20
   140008124:	14000013 	b	0x140008170
   140008128:	2a1403e0 	mov	w0, w20
   14000812c:	940005f7 	bl	0x140009908
   140008130:	37000160 	tbnz	w0, #0, 0x14000815c
   140008134:	2a1403e0 	mov	w0, w20
   140008138:	940003bb 	bl	0x140009024
   14000813c:	36000100 	tbz	w0, #0, 0x14000815c
   140008140:	510006e8 	sub	w8, w23, #0x1
   140008144:	2a1403e9 	mov	w9, w20
   140008148:	1400000a 	b	0x140008170
   14000814c:	52800dc9 	mov	w9, #0x6e                  	// #110
   140008150:	14000008 	b	0x140008170
   140008154:	52800e49 	mov	w9, #0x72                  	// #114
   140008158:	14000006 	b	0x140008170
   14000815c:	32000288 	orr	w8, w20, #0x1
   140008160:	5ac01108 	clz	w8, w8
   140008164:	53027d08 	lsr	w8, w8, #2
   140008168:	52000909 	eor	w9, w8, #0x7
   14000816c:	2a1403e8 	mov	w8, w20
   140008170:	2a0903f5 	mov	w21, w9
   140008174:	528000a9 	mov	w9, #0x5                   	// #5
   140008178:	51000ef4 	sub	w20, w23, #0x3
   14000817c:	52800076 	mov	w22, #0x3                   	// #3
   140008180:	510006f7 	sub	w23, w23, #0x1
   140008184:	52800af8 	mov	w24, #0x57                  	// #87
   140008188:	52800619 	mov	w25, #0x30                  	// #48
   14000818c:	d000007a 	adrp	x26, 0x140016000
   140008190:	9124635a 	add	x26, x26, #0x918
   140008194:	d000007b 	adrp	x27, 0x140016000
   140008198:	9124737b 	add	x27, x27, #0x91c
   14000819c:	14000012 	b	0x1400081e4
   1400081a0:	531e0aaa 	ubfiz	w10, w21, #2, #3
   1400081a4:	d10006ab 	sub	x11, x21, #0x1
   1400081a8:	1aca250a 	lsr	w10, w8, w10
   1400081ac:	12000d4a 	and	w10, w10, #0xf
   1400081b0:	7100295f 	cmp	w10, #0xa
   1400081b4:	1a98332c 	csel	w12, w25, w24, cc	// cc = lo, ul, last
   1400081b8:	f10002bf 	cmp	x21, #0x0
   1400081bc:	0b0a0181 	add	w1, w12, w10
   1400081c0:	1a9f153c 	csinc	w28, w9, wzr, ne	// ne = any
   1400081c4:	9a8b03f5 	csel	x21, xzr, x11, eq	// eq = none
   1400081c8:	2a0803fd 	mov	w29, w8
   1400081cc:	aa1303e0 	mov	x0, x19
   1400081d0:	f94007e2 	ldr	x2, [sp, #8]
   1400081d4:	d63f0040 	blr	x2
   1400081d8:	2a1d03e8 	mov	w8, w29
   1400081dc:	2a1c03e9 	mov	w9, w28
   1400081e0:	3707f6a0 	tbnz	w0, #0, 0x1400080b4
   1400081e4:	5144410a 	sub	w10, w8, #0x110, lsl #12
   1400081e8:	6b14011f 	cmp	w8, w20
   1400081ec:	1a96814a 	csel	w10, w10, w22, hi	// hi = pmore
   1400081f0:	52800b81 	mov	w1, #0x5c                  	// #92
   1400081f4:	2a1703fd 	mov	w29, w23
   1400081f8:	2a0903fc 	mov	w28, w9
   1400081fc:	10fffe8b 	adr	x11, 0x1400081cc
   140008200:	386a6b4c 	ldrb	w12, [x26, x10]
   140008204:	8b0c096b 	add	x11, x11, x12, lsl #2
   140008208:	d61f0160 	br	x11
   14000820c:	714442bf 	cmp	w21, #0x110, lsl #12
   140008210:	540002c0 	b.eq	0x140008268  // b.none
   140008214:	52a0023d 	mov	w29, #0x110000              	// #1114112
   140008218:	2a1503e1 	mov	w1, w21
   14000821c:	2a0903fc 	mov	w28, w9
   140008220:	17ffffeb 	b	0x1400081cc
   140008224:	92401d2a 	and	x10, x9, #0xff
   140008228:	52800fa1 	mov	w1, #0x7d                  	// #125
   14000822c:	2a1f03fc 	mov	w28, wzr
   140008230:	2a0803fd 	mov	w29, w8
   140008234:	10fffb6b 	adr	x11, 0x1400081a0
   140008238:	386a6b6c 	ldrb	w12, [x27, x10]
   14000823c:	8b0c096b 	add	x11, x11, x12, lsl #2
   140008240:	d61f0160 	br	x11
   140008244:	5280005c 	mov	w28, #0x2                   	// #2
   140008248:	52800f61 	mov	w1, #0x7b                  	// #123
   14000824c:	17ffffdf 	b	0x1400081c8
   140008250:	5280007c 	mov	w28, #0x3                   	// #3
   140008254:	52800ea1 	mov	w1, #0x75                  	// #117
   140008258:	17ffffdc 	b	0x1400081c8
   14000825c:	5280009c 	mov	w28, #0x4                   	// #4
   140008260:	52800b81 	mov	w1, #0x5c                  	// #92
   140008264:	17ffffd9 	b	0x1400081c8
   140008268:	aa1303e0 	mov	x0, x19
   14000826c:	f94007e2 	ldr	x2, [sp, #8]
   140008270:	a9464ff4 	ldp	x20, x19, [sp, #96]
   140008274:	528004e1 	mov	w1, #0x27                  	// #39
   140008278:	a94557f6 	ldp	x22, x21, [sp, #80]
   14000827c:	a9445ff8 	ldp	x24, x23, [sp, #64]
   140008280:	a94367fa 	ldp	x26, x25, [sp, #48]
   140008284:	a9426ffc 	ldp	x28, x27, [sp, #32]
   140008288:	a94177fe 	ldp	x30, x29, [sp, #16]
   14000828c:	9101c3ff 	add	sp, sp, #0x70
   140008290:	d61f0040 	br	x2
   140008294:	d102c3ff 	sub	sp, sp, #0xb0
   140008298:	a90a4ff4 	stp	x20, x19, [sp, #160]
   14000829c:	b9403034 	ldr	w20, [x1, #48]
   1400082a0:	aa0103f3 	mov	x19, x1
   1400082a4:	3dc00421 	ldr	q1, [x1, #16]
   1400082a8:	f9004bfe 	str	x30, [sp, #144]
   1400082ac:	2a1403e8 	mov	w8, w20
   1400082b0:	36100114 	tbz	w20, #2, 0x1400082d0
   1400082b4:	9e660029 	fmov	x9, d1
   1400082b8:	321d0288 	orr	w8, w20, #0x8
   1400082bc:	f100053f 	cmp	x9, #0x1
   1400082c0:	54000080 	b.eq	0x1400082d0  // b.none
   1400082c4:	b0000069 	adrp	x9, 0x140015000
   1400082c8:	3dc20520 	ldr	q0, [x9, #2064]
   1400082cc:	3d800660 	str	q0, [x19, #16]
   1400082d0:	321e0108 	orr	w8, w8, #0x4
   1400082d4:	52800fe9 	mov	w9, #0x7f                  	// #127
   1400082d8:	52800aea 	mov	w10, #0x57                  	// #87
   1400082dc:	5280060b 	mov	w11, #0x30                  	// #48
   1400082e0:	910043ec 	add	x12, sp, #0x10
   1400082e4:	b9003268 	str	w8, [x19, #48]
   1400082e8:	12000c0d 	and	w13, w0, #0xf
   1400082ec:	d344fc0e 	lsr	x14, x0, #4
   1400082f0:	710029bf 	cmp	w13, #0xa
   1400082f4:	aa0903e8 	mov	x8, x9
   1400082f8:	1a8a316f 	csel	w15, w11, w10, cc	// cc = lo, ul, last
   1400082fc:	f1003c1f 	cmp	x0, #0xf
   140008300:	d1000529 	sub	x9, x9, #0x1
   140008304:	aa0e03e0 	mov	x0, x14
   140008308:	0b0d01ed 	add	w13, w15, w13
   14000830c:	3828698d 	strb	w13, [x12, x8]
   140008310:	54fffec8 	b.hi	0x1400082e8  // b.pmore
   140008314:	f102051f 	cmp	x8, #0x81
   140008318:	3d8003e1 	str	q1, [sp]
   14000831c:	54000282 	b.cs	0x14000836c  // b.hs, b.nlast
   140008320:	91000508 	add	x8, x8, #0x1
   140008324:	910043e9 	add	x9, sp, #0x10
   140008328:	8b080129 	add	x9, x9, x8
   14000832c:	5280102a 	mov	w10, #0x81                  	// #129
   140008330:	d1000524 	sub	x4, x9, #0x1
   140008334:	cb080145 	sub	x5, x10, x8
   140008338:	b0000062 	adrp	x2, 0x140015000
   14000833c:	912cc842 	add	x2, x2, #0xb32
   140008340:	aa1303e0 	mov	x0, x19
   140008344:	52800021 	mov	w1, #0x1                   	// #1
   140008348:	52800043 	mov	w3, #0x2                   	// #2
   14000834c:	97fffaa3 	bl	0x140006dd8
   140008350:	3dc003e0 	ldr	q0, [sp]
   140008354:	b9003274 	str	w20, [x19, #48]
   140008358:	f9404bfe 	ldr	x30, [sp, #144]
   14000835c:	3d800660 	str	q0, [x19, #16]
   140008360:	a94a4ff4 	ldp	x20, x19, [sp, #160]
   140008364:	9102c3ff 	add	sp, sp, #0xb0
   140008368:	d65f03c0 	ret
   14000836c:	b0000062 	adrp	x2, 0x140015000
   140008370:	912c6042 	add	x2, x2, #0xb18
   140008374:	aa0803e0 	mov	x0, x8
   140008378:	52801001 	mov	w1, #0x80                  	// #128
   14000837c:	94000895 	bl	0x14000a5d0
   140008380:	d4200020 	brk	#0x1
   140008384:	91001c28 	add	x8, x1, #0x7
   140008388:	12001c0a 	and	w10, w0, #0xff
   14000838c:	927df108 	and	x8, x8, #0xfffffffffffffff8
   140008390:	eb010108 	subs	x8, x8, x1
   140008394:	54000200 	b.eq	0x1400083d4  // b.none
   140008398:	eb02011f 	cmp	x8, x2
   14000839c:	9a823100 	csel	x0, x8, x2, cc	// cc = lo, ul, last
   1400083a0:	b40001a0 	cbz	x0, 0x1400083d4
   1400083a4:	aa1f03e8 	mov	x8, xzr
   1400083a8:	52800029 	mov	w9, #0x1                   	// #1
   1400083ac:	3868682b 	ldrb	w11, [x1, x8]
   1400083b0:	6b0a017f 	cmp	w11, w10
   1400083b4:	54000580 	b.eq	0x140008464  // b.none
   1400083b8:	91000508 	add	x8, x8, #0x1
   1400083bc:	eb08001f 	cmp	x0, x8
   1400083c0:	54ffff61 	b.ne	0x1400083ac  // b.any
   1400083c4:	d1004048 	sub	x8, x2, #0x10
   1400083c8:	eb08001f 	cmp	x0, x8
   1400083cc:	54000089 	b.ls	0x1400083dc  // b.plast
   1400083d0:	14000019 	b	0x140008434
   1400083d4:	aa1f03e0 	mov	x0, xzr
   1400083d8:	d1004048 	sub	x8, x2, #0x10
   1400083dc:	b200c3e9 	mov	x9, #0x101010101010101     	// #72340172838076673
   1400083e0:	b207dbeb 	mov	x11, #0xfefefefefefefefe    	// #-72340172838076674
   1400083e4:	f29fdfeb 	movk	x11, #0xfeff
   1400083e8:	9b097d49 	mul	x9, x10, x9
   1400083ec:	f860682c 	ldr	x12, [x1, x0]
   1400083f0:	ca09018c 	eor	x12, x12, x9
   1400083f4:	8b0b018d 	add	x13, x12, x11
   1400083f8:	8a2c01ac 	bic	x12, x13, x12
   1400083fc:	f201c19f 	tst	x12, #0x8080808080808080
   140008400:	54000161 	b.ne	0x14000842c  // b.any
   140008404:	8b00002c 	add	x12, x1, x0
   140008408:	f940058c 	ldr	x12, [x12, #8]
   14000840c:	ca09018c 	eor	x12, x12, x9
   140008410:	8b0b018d 	add	x13, x12, x11
   140008414:	8a2c01ac 	bic	x12, x13, x12
   140008418:	f201c19f 	tst	x12, #0x8080808080808080
   14000841c:	54000081 	b.ne	0x14000842c  // b.any
   140008420:	91004000 	add	x0, x0, #0x10
   140008424:	eb08001f 	cmp	x0, x8
   140008428:	54fffe29 	b.ls	0x1400083ec  // b.plast
   14000842c:	eb02001f 	cmp	x0, x2
   140008430:	540002a8 	b.hi	0x140008484  // b.pmore
   140008434:	eb000048 	subs	x8, x2, x0
   140008438:	54000120 	b.eq	0x14000845c  // b.none
   14000843c:	aa1f03e9 	mov	x9, xzr
   140008440:	8b00002b 	add	x11, x1, x0
   140008444:	3869696c 	ldrb	w12, [x11, x9]
   140008448:	6b0a019f 	cmp	w12, w10
   14000844c:	54000120 	b.eq	0x140008470  // b.none
   140008450:	91000529 	add	x9, x9, #0x1
   140008454:	eb09011f 	cmp	x8, x9
   140008458:	54ffff61 	b.ne	0x140008444  // b.any
   14000845c:	aa1f03e9 	mov	x9, xzr
   140008460:	aa0203e8 	mov	x8, x2
   140008464:	aa0903e0 	mov	x0, x9
   140008468:	aa0803e1 	mov	x1, x8
   14000846c:	d65f03c0 	ret
   140008470:	8b000128 	add	x8, x9, x0
   140008474:	52800029 	mov	w9, #0x1                   	// #1
   140008478:	aa0903e0 	mov	x0, x9
   14000847c:	aa0803e1 	mov	x1, x8
   140008480:	d65f03c0 	ret
   140008484:	b0000068 	adrp	x8, 0x140015000
   140008488:	91336108 	add	x8, x8, #0xcd8
   14000848c:	aa0203e1 	mov	x1, x2
   140008490:	aa0803e2 	mov	x2, x8
   140008494:	9400084f 	bl	0x14000a5d0
   140008498:	d4200020 	brk	#0x1
   14000849c:	d10183ff 	sub	sp, sp, #0x60
   1400084a0:	910003e8 	mov	x8, sp
   1400084a4:	b0000009 	adrp	x9, 0x140009000
   1400084a8:	911cd129 	add	x9, x9, #0x734
   1400084ac:	910023ea 	add	x10, sp, #0x8
   1400084b0:	a90007e0 	stp	x0, x1, [sp]
   1400084b4:	910043e0 	add	x0, sp, #0x10
   1400084b8:	aa0203e1 	mov	x1, x2
   1400084bc:	f9000bff 	str	xzr, [sp, #16]
   1400084c0:	a90427e8 	stp	x8, x9, [sp, #64]
   1400084c4:	b0000068 	adrp	x8, 0x140015000
   1400084c8:	9134a108 	add	x8, x8, #0xd28
   1400084cc:	a90527ea 	stp	x10, x9, [sp, #80]
   1400084d0:	52800049 	mov	w9, #0x2                   	// #2
   1400084d4:	910103ea 	add	x10, sp, #0x40
   1400084d8:	a90227e8 	stp	x8, x9, [sp, #32]
   1400084dc:	a90327ea 	stp	x10, x9, [sp, #48]
   1400084e0:	9400079d 	bl	0x14000a354
   1400084e4:	d4200020 	brk	#0x1
   1400084e8:	d10183ff 	sub	sp, sp, #0x60
   1400084ec:	910003e8 	mov	x8, sp
   1400084f0:	b0000009 	adrp	x9, 0x140009000
   1400084f4:	911cd129 	add	x9, x9, #0x734
   1400084f8:	910023ea 	add	x10, sp, #0x8
   1400084fc:	a90007e0 	stp	x0, x1, [sp]
   140008500:	910043e0 	add	x0, sp, #0x10
   140008504:	aa0203e1 	mov	x1, x2
   140008508:	f9000bff 	str	xzr, [sp, #16]
   14000850c:	a90427e8 	stp	x8, x9, [sp, #64]
   140008510:	b0000068 	adrp	x8, 0x140015000
   140008514:	91356108 	add	x8, x8, #0xd58
   140008518:	a90527ea 	stp	x10, x9, [sp, #80]
   14000851c:	52800049 	mov	w9, #0x2                   	// #2
   140008520:	910103ea 	add	x10, sp, #0x40
   140008524:	a90227e8 	stp	x8, x9, [sp, #32]
   140008528:	a90327ea 	stp	x10, x9, [sp, #48]
   14000852c:	9400078a 	bl	0x14000a354
   140008530:	d4200020 	brk	#0x1
   140008534:	d10183ff 	sub	sp, sp, #0x60
   140008538:	910003e8 	mov	x8, sp
   14000853c:	b0000009 	adrp	x9, 0x140009000
   140008540:	911cd129 	add	x9, x9, #0x734
   140008544:	910023ea 	add	x10, sp, #0x8
   140008548:	a90007e0 	stp	x0, x1, [sp]
   14000854c:	910043e0 	add	x0, sp, #0x10
   140008550:	aa0203e1 	mov	x1, x2
   140008554:	f9000bff 	str	xzr, [sp, #16]
   140008558:	a90427e8 	stp	x8, x9, [sp, #64]
   14000855c:	b0000068 	adrp	x8, 0x140015000
   140008560:	91368108 	add	x8, x8, #0xda0
   140008564:	a90527ea 	stp	x10, x9, [sp, #80]
   140008568:	52800049 	mov	w9, #0x2                   	// #2
   14000856c:	910103ea 	add	x10, sp, #0x40
   140008570:	a90227e8 	stp	x8, x9, [sp, #32]
   140008574:	a90327ea 	stp	x10, x9, [sp, #48]
   140008578:	94000777 	bl	0x14000a354
   14000857c:	d4200020 	brk	#0x1
   140008580:	91001c08 	add	x8, x0, #0x7
   140008584:	927df10c 	and	x12, x8, #0xfffffffffffffff8
   140008588:	cb00018b 	sub	x11, x12, x0
   14000858c:	eb01017f 	cmp	x11, x1
   140008590:	54000188 	b.hi	0x1400085c0  // b.pmore
   140008594:	f100217f 	cmp	x11, #0x8
   140008598:	54000148 	b.hi	0x1400085c0  // b.pmore
   14000859c:	cb0b002a 	sub	x10, x1, x11
   1400085a0:	f100215f 	cmp	x10, #0x8
   1400085a4:	540000e3 	b.cc	0x1400085c0  // b.lo, b.ul, b.last
   1400085a8:	8b0b0009 	add	x9, x0, x11
   1400085ac:	92400948 	and	x8, x10, #0x7
   1400085b0:	eb00019f 	cmp	x12, x0
   1400085b4:	54000201 	b.ne	0x1400085f4  // b.any
   1400085b8:	aa1f03ec 	mov	x12, xzr
   1400085bc:	140000ec 	b	0x14000896c
   1400085c0:	b40000c1 	cbz	x1, 0x1400085d8
   1400085c4:	f100203f 	cmp	x1, #0x8
   1400085c8:	540000c2 	b.cs	0x1400085e0  // b.hs, b.nlast
   1400085cc:	aa1f03e8 	mov	x8, xzr
   1400085d0:	aa0003ea 	mov	x10, x0
   1400085d4:	14000071 	b	0x140008798
   1400085d8:	aa1f03e0 	mov	x0, xzr
   1400085dc:	d65f03c0 	ret
   1400085e0:	f100403f 	cmp	x1, #0x10
   1400085e4:	54000122 	b.cs	0x140008608  // b.hs, b.nlast
   1400085e8:	aa1f03e8 	mov	x8, xzr
   1400085ec:	aa1f03e9 	mov	x9, xzr
   1400085f0:	14000044 	b	0x140008700
   1400085f4:	f100217f 	cmp	x11, #0x8
   1400085f8:	54000e02 	b.cs	0x1400087b8  // b.hs, b.nlast
   1400085fc:	aa1f03ec 	mov	x12, xzr
   140008600:	aa0003ee 	mov	x14, x0
   140008604:	140000d5 	b	0x140008958
   140008608:	5280002b 	mov	w11, #0x1                   	// #1
   14000860c:	927cec29 	and	x9, x1, #0xfffffffffffffff0
   140008610:	6f00e400 	movi	v0.2d, #0x0
   140008614:	aa0903e8 	mov	x8, x9
   140008618:	4f05e7e1 	movi	v1.16b, #0xbf
   14000861c:	aa0003ea 	mov	x10, x0
   140008620:	6f00e402 	movi	v2.2d, #0x0
   140008624:	6f00e404 	movi	v4.2d, #0x0
   140008628:	6f00e403 	movi	v3.2d, #0x0
   14000862c:	6f00e407 	movi	v7.2d, #0x0
   140008630:	6f00e405 	movi	v5.2d, #0x0
   140008634:	6f00e410 	movi	v16.2d, #0x0
   140008638:	6f00e406 	movi	v6.2d, #0x0
   14000863c:	4e080d71 	dup	v17.2d, x11
   140008640:	3cc10552 	ldr	q18, [x10], #16
   140008644:	f1004108 	subs	x8, x8, #0x10
   140008648:	4e213652 	cmgt	v18.16b, v18.16b, v1.16b
   14000864c:	2f08a653 	uxtl	v19.8h, v18.8b
   140008650:	6f08a652 	uxtl2	v18.8h, v18.16b
   140008654:	2f10a674 	uxtl	v20.4s, v19.4h
   140008658:	6f10a673 	uxtl2	v19.4s, v19.8h
   14000865c:	2f10a655 	uxtl	v21.4s, v18.4h
   140008660:	6f10a652 	uxtl2	v18.4s, v18.8h
   140008664:	2f20a696 	uxtl	v22.2d, v20.2s
   140008668:	6f20a694 	uxtl2	v20.2d, v20.4s
   14000866c:	2f20a677 	uxtl	v23.2d, v19.2s
   140008670:	2f20a6b8 	uxtl	v24.2d, v21.2s
   140008674:	6f20a673 	uxtl2	v19.2d, v19.4s
   140008678:	6f20a6b5 	uxtl2	v21.2d, v21.4s
   14000867c:	2f20a659 	uxtl	v25.2d, v18.2s
   140008680:	6f20a652 	uxtl2	v18.2d, v18.4s
   140008684:	4e311ed6 	and	v22.16b, v22.16b, v17.16b
   140008688:	4e311e94 	and	v20.16b, v20.16b, v17.16b
   14000868c:	4e311ef7 	and	v23.16b, v23.16b, v17.16b
   140008690:	4e311f18 	and	v24.16b, v24.16b, v17.16b
   140008694:	4e311e73 	and	v19.16b, v19.16b, v17.16b
   140008698:	4e311eb5 	and	v21.16b, v21.16b, v17.16b
   14000869c:	4e311f39 	and	v25.16b, v25.16b, v17.16b
   1400086a0:	4e311e52 	and	v18.16b, v18.16b, v17.16b
   1400086a4:	4ef284c6 	add	v6.2d, v6.2d, v18.2d
   1400086a8:	4ef98610 	add	v16.2d, v16.2d, v25.2d
   1400086ac:	4ef584a5 	add	v5.2d, v5.2d, v21.2d
   1400086b0:	4ef38463 	add	v3.2d, v3.2d, v19.2d
   1400086b4:	4ef884e7 	add	v7.2d, v7.2d, v24.2d
   1400086b8:	4ef78484 	add	v4.2d, v4.2d, v23.2d
   1400086bc:	4ef48442 	add	v2.2d, v2.2d, v20.2d
   1400086c0:	4ef68400 	add	v0.2d, v0.2d, v22.2d
   1400086c4:	54fffbe1 	b.ne	0x140008640  // b.any
   1400086c8:	4ee78400 	add	v0.2d, v0.2d, v7.2d
   1400086cc:	eb01013f 	cmp	x9, x1
   1400086d0:	4ef08481 	add	v1.2d, v4.2d, v16.2d
   1400086d4:	4ee58442 	add	v2.2d, v2.2d, v5.2d
   1400086d8:	4ee68463 	add	v3.2d, v3.2d, v6.2d
   1400086dc:	4ee18400 	add	v0.2d, v0.2d, v1.2d
   1400086e0:	4ee38441 	add	v1.2d, v2.2d, v3.2d
   1400086e4:	4ee18400 	add	v0.2d, v0.2d, v1.2d
   1400086e8:	5ef1b800 	addp	d0, v0.2d
   1400086ec:	9e660008 	fmov	x8, d0
   1400086f0:	54000600 	b.eq	0x1400087b0  // b.none
   1400086f4:	37180061 	tbnz	w1, #3, 0x140008700
   1400086f8:	8b09000a 	add	x10, x0, x9
   1400086fc:	14000027 	b	0x140008798
   140008700:	6f00e401 	movi	v1.2d, #0x0
   140008704:	5280002c 	mov	w12, #0x1                   	// #1
   140008708:	927df02b 	and	x11, x1, #0xfffffffffffffff8
   14000870c:	0f05e7e2 	movi	v2.8b, #0xbf
   140008710:	6f00e400 	movi	v0.2d, #0x0
   140008714:	8b0b000a 	add	x10, x0, x11
   140008718:	6f00e403 	movi	v3.2d, #0x0
   14000871c:	4e081d01 	mov	v1.d[0], x8
   140008720:	8b090008 	add	x8, x0, x9
   140008724:	6f00e404 	movi	v4.2d, #0x0
   140008728:	cb0b0129 	sub	x9, x9, x11
   14000872c:	4e080d85 	dup	v5.2d, x12
   140008730:	fc408506 	ldr	d6, [x8], #8
   140008734:	b1002129 	adds	x9, x9, #0x8
   140008738:	0e2234c6 	cmgt	v6.8b, v6.8b, v2.8b
   14000873c:	2f08a4c6 	uxtl	v6.8h, v6.8b
   140008740:	2f10a4c7 	uxtl	v7.4s, v6.4h
   140008744:	6f10a4c6 	uxtl2	v6.4s, v6.8h
   140008748:	2f20a4f0 	uxtl	v16.2d, v7.2s
   14000874c:	6f20a4e7 	uxtl2	v7.2d, v7.4s
   140008750:	2f20a4d1 	uxtl	v17.2d, v6.2s
   140008754:	6f20a4c6 	uxtl2	v6.2d, v6.4s
   140008758:	4e251e10 	and	v16.16b, v16.16b, v5.16b
   14000875c:	4e251ce7 	and	v7.16b, v7.16b, v5.16b
   140008760:	4e251e31 	and	v17.16b, v17.16b, v5.16b
   140008764:	4e251cc6 	and	v6.16b, v6.16b, v5.16b
   140008768:	4ee68484 	add	v4.2d, v4.2d, v6.2d
   14000876c:	4ef18463 	add	v3.2d, v3.2d, v17.2d
   140008770:	4ee78400 	add	v0.2d, v0.2d, v7.2d
   140008774:	4ef08421 	add	v1.2d, v1.2d, v16.2d
   140008778:	54fffdc1 	b.ne	0x140008730  // b.any
   14000877c:	4ee38421 	add	v1.2d, v1.2d, v3.2d
   140008780:	eb01017f 	cmp	x11, x1
   140008784:	4ee48400 	add	v0.2d, v0.2d, v4.2d
   140008788:	4ee08420 	add	v0.2d, v1.2d, v0.2d
   14000878c:	5ef1b800 	addp	d0, v0.2d
   140008790:	9e660008 	fmov	x8, d0
   140008794:	540000e0 	b.eq	0x1400087b0  // b.none
   140008798:	8b010009 	add	x9, x0, x1
   14000879c:	38c0154b 	ldrsb	w11, [x10], #1
   1400087a0:	3101057f 	cmn	w11, #0x41
   1400087a4:	9a88d508 	cinc	x8, x8, gt
   1400087a8:	eb09015f 	cmp	x10, x9
   1400087ac:	54ffff81 	b.ne	0x14000879c  // b.any
   1400087b0:	aa0803e0 	mov	x0, x8
   1400087b4:	d65f03c0 	ret
   1400087b8:	f100417f 	cmp	x11, #0x10
   1400087bc:	54000542 	b.cs	0x140008864  // b.hs, b.nlast
   1400087c0:	aa1f03ec 	mov	x12, xzr
   1400087c4:	aa1f03ed 	mov	x13, xzr
   1400087c8:	6f00e401 	movi	v1.2d, #0x0
   1400087cc:	52800030 	mov	w16, #0x1                   	// #1
   1400087d0:	927df16f 	and	x15, x11, #0xfffffffffffffff8
   1400087d4:	0f05e7e2 	movi	v2.8b, #0xbf
   1400087d8:	6f00e400 	movi	v0.2d, #0x0
   1400087dc:	8b0f000e 	add	x14, x0, x15
   1400087e0:	6f00e403 	movi	v3.2d, #0x0
   1400087e4:	4e081d81 	mov	v1.d[0], x12
   1400087e8:	8b0d000c 	add	x12, x0, x13
   1400087ec:	6f00e404 	movi	v4.2d, #0x0
   1400087f0:	cb0f01ad 	sub	x13, x13, x15
   1400087f4:	4e080e05 	dup	v5.2d, x16
   1400087f8:	fc408586 	ldr	d6, [x12], #8
   1400087fc:	b10021ad 	adds	x13, x13, #0x8
   140008800:	0e2234c6 	cmgt	v6.8b, v6.8b, v2.8b
   140008804:	2f08a4c6 	uxtl	v6.8h, v6.8b
   140008808:	2f10a4c7 	uxtl	v7.4s, v6.4h
   14000880c:	6f10a4c6 	uxtl2	v6.4s, v6.8h
   140008810:	2f20a4f0 	uxtl	v16.2d, v7.2s
   140008814:	6f20a4e7 	uxtl2	v7.2d, v7.4s
   140008818:	2f20a4d1 	uxtl	v17.2d, v6.2s
   14000881c:	6f20a4c6 	uxtl2	v6.2d, v6.4s
   140008820:	4e251e10 	and	v16.16b, v16.16b, v5.16b
   140008824:	4e251ce7 	and	v7.16b, v7.16b, v5.16b
   140008828:	4e251e31 	and	v17.16b, v17.16b, v5.16b
   14000882c:	4e251cc6 	and	v6.16b, v6.16b, v5.16b
   140008830:	4ee68484 	add	v4.2d, v4.2d, v6.2d
   140008834:	4ef18463 	add	v3.2d, v3.2d, v17.2d
   140008838:	4ee78400 	add	v0.2d, v0.2d, v7.2d
   14000883c:	4ef08421 	add	v1.2d, v1.2d, v16.2d
   140008840:	54fffdc1 	b.ne	0x1400087f8  // b.any
   140008844:	4ee38421 	add	v1.2d, v1.2d, v3.2d
   140008848:	eb0f017f 	cmp	x11, x15
   14000884c:	4ee48400 	add	v0.2d, v0.2d, v4.2d
   140008850:	4ee08420 	add	v0.2d, v1.2d, v0.2d
   140008854:	5ef1b800 	addp	d0, v0.2d
   140008858:	9e66000c 	fmov	x12, d0
   14000885c:	540007e1 	b.ne	0x140008958  // b.any
   140008860:	14000043 	b	0x14000896c
   140008864:	5280002f 	mov	w15, #0x1                   	// #1
   140008868:	927ced6d 	and	x13, x11, #0xfffffffffffffff0
   14000886c:	6f00e400 	movi	v0.2d, #0x0
   140008870:	aa0d03ec 	mov	x12, x13
   140008874:	4f05e7e1 	movi	v1.16b, #0xbf
   140008878:	aa0003ee 	mov	x14, x0
   14000887c:	6f00e402 	movi	v2.2d, #0x0
   140008880:	6f00e404 	movi	v4.2d, #0x0
   140008884:	6f00e403 	movi	v3.2d, #0x0
   140008888:	6f00e407 	movi	v7.2d, #0x0
   14000888c:	6f00e405 	movi	v5.2d, #0x0
   140008890:	6f00e410 	movi	v16.2d, #0x0
   140008894:	6f00e406 	movi	v6.2d, #0x0
   140008898:	4e080df1 	dup	v17.2d, x15
   14000889c:	3cc105d2 	ldr	q18, [x14], #16
   1400088a0:	f100418c 	subs	x12, x12, #0x10
   1400088a4:	4e213652 	cmgt	v18.16b, v18.16b, v1.16b
   1400088a8:	2f08a653 	uxtl	v19.8h, v18.8b
   1400088ac:	6f08a652 	uxtl2	v18.8h, v18.16b
   1400088b0:	2f10a674 	uxtl	v20.4s, v19.4h
   1400088b4:	6f10a673 	uxtl2	v19.4s, v19.8h
   1400088b8:	2f10a655 	uxtl	v21.4s, v18.4h
   1400088bc:	6f10a652 	uxtl2	v18.4s, v18.8h
   1400088c0:	2f20a696 	uxtl	v22.2d, v20.2s
   1400088c4:	6f20a694 	uxtl2	v20.2d, v20.4s
   1400088c8:	2f20a677 	uxtl	v23.2d, v19.2s
   1400088cc:	2f20a6b8 	uxtl	v24.2d, v21.2s
   1400088d0:	6f20a673 	uxtl2	v19.2d, v19.4s
   1400088d4:	6f20a6b5 	uxtl2	v21.2d, v21.4s
   1400088d8:	2f20a659 	uxtl	v25.2d, v18.2s
   1400088dc:	6f20a652 	uxtl2	v18.2d, v18.4s
   1400088e0:	4e311ed6 	and	v22.16b, v22.16b, v17.16b
   1400088e4:	4e311e94 	and	v20.16b, v20.16b, v17.16b
   1400088e8:	4e311ef7 	and	v23.16b, v23.16b, v17.16b
   1400088ec:	4e311f18 	and	v24.16b, v24.16b, v17.16b
   1400088f0:	4e311e73 	and	v19.16b, v19.16b, v17.16b
   1400088f4:	4e311eb5 	and	v21.16b, v21.16b, v17.16b
   1400088f8:	4e311f39 	and	v25.16b, v25.16b, v17.16b
   1400088fc:	4e311e52 	and	v18.16b, v18.16b, v17.16b
   140008900:	4ef284c6 	add	v6.2d, v6.2d, v18.2d
   140008904:	4ef98610 	add	v16.2d, v16.2d, v25.2d
   140008908:	4ef584a5 	add	v5.2d, v5.2d, v21.2d
   14000890c:	4ef38463 	add	v3.2d, v3.2d, v19.2d
   140008910:	4ef884e7 	add	v7.2d, v7.2d, v24.2d
   140008914:	4ef78484 	add	v4.2d, v4.2d, v23.2d
   140008918:	4ef48442 	add	v2.2d, v2.2d, v20.2d
   14000891c:	4ef68400 	add	v0.2d, v0.2d, v22.2d
   140008920:	54fffbe1 	b.ne	0x14000889c  // b.any
   140008924:	4ee78400 	add	v0.2d, v0.2d, v7.2d
   140008928:	eb0d017f 	cmp	x11, x13
   14000892c:	4ef08481 	add	v1.2d, v4.2d, v16.2d
   140008930:	4ee58442 	add	v2.2d, v2.2d, v5.2d
   140008934:	4ee68463 	add	v3.2d, v3.2d, v6.2d
   140008938:	4ee18400 	add	v0.2d, v0.2d, v1.2d
   14000893c:	4ee38441 	add	v1.2d, v2.2d, v3.2d
   140008940:	4ee18400 	add	v0.2d, v0.2d, v1.2d
   140008944:	5ef1b800 	addp	d0, v0.2d
   140008948:	9e66000c 	fmov	x12, d0
   14000894c:	54000100 	b.eq	0x14000896c  // b.none
   140008950:	371ff3cb 	tbnz	w11, #3, 0x1400087c8
   140008954:	8b0d000e 	add	x14, x0, x13
   140008958:	38c015cb 	ldrsb	w11, [x14], #1
   14000895c:	3101057f 	cmn	w11, #0x41
   140008960:	9a8cd58c 	cinc	x12, x12, gt
   140008964:	eb0901df 	cmp	x14, x9
   140008968:	54ffff81 	b.ne	0x140008958  // b.any
   14000896c:	d343fd4b 	lsr	x11, x10, #3
   140008970:	b40004a8 	cbz	x8, 0x140008a04
   140008974:	927df14a 	and	x10, x10, #0xfffffffffffffff8
   140008978:	8b0a012d 	add	x13, x9, x10
   14000897c:	39c001aa 	ldrsb	w10, [x13]
   140008980:	3101055f 	cmn	w10, #0x41
   140008984:	1a9fd7ea 	cset	w10, gt
   140008988:	f100051f 	cmp	x8, #0x1
   14000898c:	540003e0 	b.eq	0x140008a08  // b.none
   140008990:	39c005ae 	ldrsb	w14, [x13, #1]
   140008994:	310105df 	cmn	w14, #0x41
   140008998:	9a8ad54a 	cinc	x10, x10, gt
   14000899c:	f100091f 	cmp	x8, #0x2
   1400089a0:	54000340 	b.eq	0x140008a08  // b.none
   1400089a4:	39c009ae 	ldrsb	w14, [x13, #2]
   1400089a8:	310105df 	cmn	w14, #0x41
   1400089ac:	9a8ad54a 	cinc	x10, x10, gt
   1400089b0:	f1000d1f 	cmp	x8, #0x3
   1400089b4:	540002a0 	b.eq	0x140008a08  // b.none
   1400089b8:	39c00dae 	ldrsb	w14, [x13, #3]
   1400089bc:	310105df 	cmn	w14, #0x41
   1400089c0:	9a8ad54a 	cinc	x10, x10, gt
   1400089c4:	f100111f 	cmp	x8, #0x4
   1400089c8:	54000200 	b.eq	0x140008a08  // b.none
   1400089cc:	39c011ae 	ldrsb	w14, [x13, #4]
   1400089d0:	310105df 	cmn	w14, #0x41
   1400089d4:	9a8ad54a 	cinc	x10, x10, gt
   1400089d8:	f100151f 	cmp	x8, #0x5
   1400089dc:	54000160 	b.eq	0x140008a08  // b.none
   1400089e0:	39c015ae 	ldrsb	w14, [x13, #5]
   1400089e4:	310105df 	cmn	w14, #0x41
   1400089e8:	9a8ad54a 	cinc	x10, x10, gt
   1400089ec:	f100191f 	cmp	x8, #0x6
   1400089f0:	540000c0 	b.eq	0x140008a08  // b.none
   1400089f4:	39c019a8 	ldrsb	w8, [x13, #6]
   1400089f8:	3101051f 	cmn	w8, #0x41
   1400089fc:	9a8ad54a 	cinc	x10, x10, gt
   140008a00:	14000002 	b	0x140008a08
   140008a04:	aa1f03ea 	mov	x10, xzr
   140008a08:	4f00e420 	movi	v0.16b, #0x1
   140008a0c:	8b0c0148 	add	x8, x10, x12
   140008a10:	5280180d 	mov	w13, #0xc0                  	// #192
   140008a14:	b20083ee 	mov	x14, #0x1000100010001       	// #281479271743489
   140008a18:	1400000a 	b	0x140008a40
   140008a1c:	d348fdf0 	lsr	x16, x15, #8
   140008a20:	92009def 	and	x15, x15, #0xff00ff00ff00ff
   140008a24:	92009e10 	and	x16, x16, #0xff00ff00ff00ff
   140008a28:	8b0f020f 	add	x15, x16, x15
   140008a2c:	9b0e7df0 	mul	x16, x15, x14
   140008a30:	9240052f 	and	x15, x9, #0x3
   140008a34:	8b090d49 	add	x9, x10, x9, lsl #3
   140008a38:	8b50c108 	add	x8, x8, x16, lsr #48
   140008a3c:	b50003ef 	cbnz	x15, 0x140008ab8
   140008a40:	b4ffeb8b 	cbz	x11, 0x1400087b0
   140008a44:	f103017f 	cmp	x11, #0xc0
   140008a48:	aa0903ea 	mov	x10, x9
   140008a4c:	9a8d3169 	csel	x9, x11, x13, cc	// cc = lo, ul, last
   140008a50:	aa1f03ef 	mov	x15, xzr
   140008a54:	cb09016b 	sub	x11, x11, x9
   140008a58:	f27e152c 	ands	x12, x9, #0xfc
   140008a5c:	54fffe00 	b.eq	0x140008a1c  // b.none
   140008a60:	d3421d30 	ubfx	x16, x9, #2, #6
   140008a64:	aa0a03f1 	mov	x17, x10
   140008a68:	d37bea10 	lsl	x16, x16, #5
   140008a6c:	b4fffd91 	cbz	x17, 0x140008a1c
   140008a70:	acc10a21 	ldp	q1, q2, [x17], #32
   140008a74:	f1008210 	subs	x16, x16, #0x20
   140008a78:	6e205823 	mvn	v3.16b, v1.16b
   140008a7c:	6f7a0421 	ushr	v1.2d, v1.2d, #6
   140008a80:	6f790463 	ushr	v3.2d, v3.2d, #7
   140008a84:	6e205844 	mvn	v4.16b, v2.16b
   140008a88:	6f7a0442 	ushr	v2.2d, v2.2d, #6
   140008a8c:	6f790484 	ushr	v4.2d, v4.2d, #7
   140008a90:	4ea11c61 	orr	v1.16b, v3.16b, v1.16b
   140008a94:	4ea21c82 	orr	v2.16b, v4.16b, v2.16b
   140008a98:	4e201c42 	and	v2.16b, v2.16b, v0.16b
   140008a9c:	4e201c21 	and	v1.16b, v1.16b, v0.16b
   140008aa0:	4ee28421 	add	v1.2d, v1.2d, v2.2d
   140008aa4:	5ef1b821 	addp	d1, v1.2d
   140008aa8:	9e660020 	fmov	x0, d1
   140008aac:	8b0f000f 	add	x15, x0, x15
   140008ab0:	54fffde1 	b.ne	0x140008a6c  // b.any
   140008ab4:	17ffffda 	b	0x140008a1c
   140008ab8:	b400012a 	cbz	x10, 0x140008adc
   140008abc:	d10005e9 	sub	x9, x15, #0x1
   140008ac0:	8b0c0d4b 	add	x11, x10, x12, lsl #3
   140008ac4:	9240f129 	and	x9, x9, #0x1fffffffffffffff
   140008ac8:	f1000d3f 	cmp	x9, #0x3
   140008acc:	540000c2 	b.cs	0x140008ae4  // b.hs, b.nlast
   140008ad0:	aa1f03ec 	mov	x12, xzr
   140008ad4:	aa0b03e9 	mov	x9, x11
   140008ad8:	14000021 	b	0x140008b5c
   140008adc:	aa1f03ec 	mov	x12, xzr
   140008ae0:	14000028 	b	0x140008b80
   140008ae4:	9100052d 	add	x13, x9, #0x1
   140008ae8:	8b0c0d4c 	add	x12, x10, x12, lsl #3
   140008aec:	927eedaa 	and	x10, x13, #0x3ffffffffffffffc
   140008af0:	9100418c 	add	x12, x12, #0x10
   140008af4:	6f00e400 	movi	v0.2d, #0x0
   140008af8:	aa0a03ee 	mov	x14, x10
   140008afc:	4f00e421 	movi	v1.16b, #0x1
   140008b00:	8b0a0d69 	add	x9, x11, x10, lsl #3
   140008b04:	6f00e402 	movi	v2.2d, #0x0
   140008b08:	ad7f9183 	ldp	q3, q4, [x12, #-16]
   140008b0c:	9100818c 	add	x12, x12, #0x20
   140008b10:	f10011ce 	subs	x14, x14, #0x4
   140008b14:	6e205865 	mvn	v5.16b, v3.16b
   140008b18:	6f7a0463 	ushr	v3.2d, v3.2d, #6
   140008b1c:	6f7904a5 	ushr	v5.2d, v5.2d, #7
   140008b20:	6e205886 	mvn	v6.16b, v4.16b
   140008b24:	6f7a0484 	ushr	v4.2d, v4.2d, #6
   140008b28:	6f7904c6 	ushr	v6.2d, v6.2d, #7
   140008b2c:	4ea31ca3 	orr	v3.16b, v5.16b, v3.16b
   140008b30:	4ea41cc4 	orr	v4.16b, v6.16b, v4.16b
   140008b34:	4e211c63 	and	v3.16b, v3.16b, v1.16b
   140008b38:	4e211c84 	and	v4.16b, v4.16b, v1.16b
   140008b3c:	4ee08460 	add	v0.2d, v3.2d, v0.2d
   140008b40:	4ee28482 	add	v2.2d, v4.2d, v2.2d
   140008b44:	54fffe21 	b.ne	0x140008b08  // b.any
   140008b48:	4ee08440 	add	v0.2d, v2.2d, v0.2d
   140008b4c:	eb0a01bf 	cmp	x13, x10
   140008b50:	5ef1b800 	addp	d0, v0.2d
   140008b54:	9e66000c 	fmov	x12, d0
   140008b58:	54000140 	b.eq	0x140008b80  // b.none
   140008b5c:	8b0f0d6a 	add	x10, x11, x15, lsl #3
   140008b60:	f840852b 	ldr	x11, [x9], #8
   140008b64:	eb0a013f 	cmp	x9, x10
   140008b68:	aa2b03ed 	mvn	x13, x11
   140008b6c:	d347fdad 	lsr	x13, x13, #7
   140008b70:	aa4b19ab 	orr	x11, x13, x11, lsr #6
   140008b74:	9200c16b 	and	x11, x11, #0x101010101010101
   140008b78:	8b0c016c 	add	x12, x11, x12
   140008b7c:	54ffff21 	b.ne	0x140008b60  // b.any
   140008b80:	d348fd89 	lsr	x9, x12, #8
   140008b84:	92009d8a 	and	x10, x12, #0xff00ff00ff00ff
   140008b88:	92009d29 	and	x9, x9, #0xff00ff00ff00ff
   140008b8c:	8b0a0129 	add	x9, x9, x10
   140008b90:	b20083ea 	mov	x10, #0x1000100010001       	// #281479271743489
   140008b94:	9b0a7d29 	mul	x9, x9, x10
   140008b98:	8b49c100 	add	x0, x8, x9, lsr #48
   140008b9c:	d65f03c0 	ret
   140008ba0:	f104043f 	cmp	x1, #0x101
   140008ba4:	a9b30fe2 	stp	x2, x3, [sp, #-208]!
   140008ba8:	540002e3 	b.cc	0x140008c04  // b.lo, b.ul, b.last
   140008bac:	52802008 	mov	w8, #0x100                 	// #256
   140008bb0:	38e8680a 	ldrsb	w10, [x0, x8]
   140008bb4:	aa0803e9 	mov	x9, x8
   140008bb8:	d1000508 	sub	x8, x8, #0x1
   140008bbc:	3101055f 	cmn	w10, #0x41
   140008bc0:	54ffff8d 	b.le	0x140008bb0
   140008bc4:	d103f129 	sub	x9, x9, #0xfc
   140008bc8:	9103f128 	add	x8, x9, #0xfc
   140008bcc:	eb01011f 	cmp	x8, x1
   140008bd0:	540002a2 	b.cs	0x140008c24  // b.hs, b.nlast
   140008bd4:	8b090009 	add	x9, x0, x9
   140008bd8:	39c3f129 	ldrsb	w9, [x9, #252]
   140008bdc:	3101053f 	cmn	w9, #0x41
   140008be0:	540008ad 	b.le	0x140008cf4
   140008be4:	528000a9 	mov	w9, #0x5                   	// #5
   140008be8:	a90123e0 	stp	x0, x8, [sp, #16]
   140008bec:	b0000068 	adrp	x8, 0x140015000
   140008bf0:	91370108 	add	x8, x8, #0xdc0
   140008bf4:	eb01005f 	cmp	x2, x1
   140008bf8:	a90227e8 	stp	x8, x9, [sp, #32]
   140008bfc:	54000249 	b.ls	0x140008c44  // b.plast
   140008c00:	14000025 	b	0x140008c94
   140008c04:	aa1f03e9 	mov	x9, xzr
   140008c08:	a90107e0 	stp	x0, x1, [sp, #16]
   140008c0c:	b0000068 	adrp	x8, 0x140015000
   140008c10:	9121c108 	add	x8, x8, #0x870
   140008c14:	eb01005f 	cmp	x2, x1
   140008c18:	a90227e8 	stp	x8, x9, [sp, #32]
   140008c1c:	54000149 	b.ls	0x140008c44  // b.plast
   140008c20:	1400001d 	b	0x140008c94
   140008c24:	54000681 	b.ne	0x140008cf4  // b.any
   140008c28:	aa1f03e9 	mov	x9, xzr
   140008c2c:	a90123e0 	stp	x0, x8, [sp, #16]
   140008c30:	b0000068 	adrp	x8, 0x140015000
   140008c34:	9121c108 	add	x8, x8, #0x870
   140008c38:	eb01005f 	cmp	x2, x1
   140008c3c:	a90227e8 	stp	x8, x9, [sp, #32]
   140008c40:	540002a8 	b.hi	0x140008c94  // b.pmore
   140008c44:	eb01007f 	cmp	x3, x1
   140008c48:	54000268 	b.hi	0x140008c94  // b.pmore
   140008c4c:	eb03005f 	cmp	x2, x3
   140008c50:	540005a9 	b.ls	0x140008d04  // b.plast
   140008c54:	910003e8 	mov	x8, sp
   140008c58:	b0000009 	adrp	x9, 0x140009000
   140008c5c:	911cd129 	add	x9, x9, #0x734
   140008c60:	910023ea 	add	x10, sp, #0x8
   140008c64:	a90827e8 	stp	x8, x9, [sp, #128]
   140008c68:	910043e8 	add	x8, sp, #0x10
   140008c6c:	a90927ea 	stp	x10, x9, [sp, #144]
   140008c70:	b0000009 	adrp	x9, 0x140009000
   140008c74:	9123e129 	add	x9, x9, #0x8f8
   140008c78:	910083ea 	add	x10, sp, #0x20
   140008c7c:	a90a27e8 	stp	x8, x9, [sp, #160]
   140008c80:	b0000068 	adrp	x8, 0x140015000
   140008c84:	91390108 	add	x8, x8, #0xe40
   140008c88:	a90b27ea 	stp	x10, x9, [sp, #176]
   140008c8c:	52800089 	mov	w9, #0x4                   	// #4
   140008c90:	14000011 	b	0x140008cd4
   140008c94:	eb01005f 	cmp	x2, x1
   140008c98:	910103e8 	add	x8, sp, #0x40
   140008c9c:	9a838049 	csel	x9, x2, x3, hi	// hi = pmore
   140008ca0:	b000000a 	adrp	x10, 0x140009000
   140008ca4:	911cd14a 	add	x10, x10, #0x734
   140008ca8:	f90023e9 	str	x9, [sp, #64]
   140008cac:	b0000009 	adrp	x9, 0x140009000
   140008cb0:	9123e129 	add	x9, x9, #0x8f8
   140008cb4:	a9082be8 	stp	x8, x10, [sp, #128]
   140008cb8:	910043e8 	add	x8, sp, #0x10
   140008cbc:	910083ea 	add	x10, sp, #0x20
   140008cc0:	a90927e8 	stp	x8, x9, [sp, #144]
   140008cc4:	b0000068 	adrp	x8, 0x140015000
   140008cc8:	9137a108 	add	x8, x8, #0xde8
   140008ccc:	a90a27ea 	stp	x10, x9, [sp, #160]
   140008cd0:	52800069 	mov	w9, #0x3                   	// #3
   140008cd4:	910203ea 	add	x10, sp, #0x80
   140008cd8:	a90627e8 	stp	x8, x9, [sp, #96]
   140008cdc:	f9002bff 	str	xzr, [sp, #80]
   140008ce0:	a90727ea 	stp	x10, x9, [sp, #112]
   140008ce4:	910143e0 	add	x0, sp, #0x50
   140008ce8:	aa0403e1 	mov	x1, x4
   140008cec:	9400059a 	bl	0x14000a354
   140008cf0:	d4200020 	brk	#0x1
   140008cf4:	aa1f03e2 	mov	x2, xzr
   140008cf8:	aa0803e3 	mov	x3, x8
   140008cfc:	9400063b 	bl	0x14000a5e8
   140008d00:	d4200020 	brk	#0x1
   140008d04:	b5000222 	cbnz	x2, 0x140008d48
   140008d08:	aa0303e2 	mov	x2, x3
   140008d0c:	aa0103e8 	mov	x8, x1
   140008d10:	eb01005f 	cmp	x2, x1
   140008d14:	f9001be2 	str	x2, [sp, #48]
   140008d18:	54000362 	b.cs	0x140008d84  // b.hs, b.nlast
   140008d1c:	f1000c48 	subs	x8, x2, #0x3
   140008d20:	91000449 	add	x9, x2, #0x1
   140008d24:	9a8833e8 	csel	x8, xzr, x8, cc	// cc = lo, ul, last
   140008d28:	eb08013f 	cmp	x9, x8
   140008d2c:	540001a2 	b.cs	0x140008d60  // b.hs, b.nlast
   140008d30:	b0000062 	adrp	x2, 0x140015000
   140008d34:	913ca042 	add	x2, x2, #0xf28
   140008d38:	aa0803e0 	mov	x0, x8
   140008d3c:	aa0903e1 	mov	x1, x9
   140008d40:	94000628 	bl	0x14000a5e0
   140008d44:	d4200020 	brk	#0x1
   140008d48:	eb01005f 	cmp	x2, x1
   140008d4c:	54000302 	b.cs	0x140008dac  // b.hs, b.nlast
   140008d50:	38e26808 	ldrsb	w8, [x0, x2]
   140008d54:	3101011f 	cmn	w8, #0x40
   140008d58:	54fffd8a 	b.ge	0x140008d08  // b.tcont
   140008d5c:	17ffffec 	b	0x140008d0c
   140008d60:	8b020009 	add	x9, x0, x2
   140008d64:	cb00012a 	sub	x10, x9, x0
   140008d68:	cb08014a 	sub	x10, x10, x8
   140008d6c:	9100054a 	add	x10, x10, #0x1
   140008d70:	38dff52b 	ldrsb	w11, [x9], #-1
   140008d74:	d100054a 	sub	x10, x10, #0x1
   140008d78:	3101017f 	cmn	w11, #0x40
   140008d7c:	54ffffab 	b.lt	0x140008d70  // b.tstop
   140008d80:	8b080148 	add	x8, x10, x8
   140008d84:	b40001a8 	cbz	x8, 0x140008db8
   140008d88:	eb01011f 	cmp	x8, x1
   140008d8c:	54000142 	b.cs	0x140008db4  // b.hs, b.nlast
   140008d90:	38e86809 	ldrsb	w9, [x0, x8]
   140008d94:	3101053f 	cmn	w9, #0x41
   140008d98:	5400010c 	b.gt	0x140008db8
   140008d9c:	aa0803e2 	mov	x2, x8
   140008da0:	aa0103e3 	mov	x3, x1
   140008da4:	94000611 	bl	0x14000a5e8
   140008da8:	d4200020 	brk	#0x1
   140008dac:	54fffae0 	b.eq	0x140008d08  // b.none
   140008db0:	17ffffd7 	b	0x140008d0c
   140008db4:	54ffff41 	b.ne	0x140008d9c  // b.any
   140008db8:	eb01011f 	cmp	x8, x1
   140008dbc:	540000e1 	b.ne	0x140008dd8  // b.any
   140008dc0:	b0000060 	adrp	x0, 0x140015000
   140008dc4:	9121c000 	add	x0, x0, #0x870
   140008dc8:	52800561 	mov	w1, #0x2b                  	// #43
   140008dcc:	aa0403e2 	mov	x2, x4
   140008dd0:	9400056d 	bl	0x14000a384
   140008dd4:	d4200020 	brk	#0x1
   140008dd8:	8b08000b 	add	x11, x0, x8
   140008ddc:	39c00169 	ldrsb	w9, [x11]
   140008de0:	12001d2c 	and	w12, w9, #0xff
   140008de4:	37f80089 	tbnz	w9, #31, 0x140008df4
   140008de8:	52800029 	mov	w9, #0x1                   	// #1
   140008dec:	b9003fec 	str	w12, [sp, #60]
   140008df0:	14000022 	b	0x140008e78
   140008df4:	39400569 	ldrb	w9, [x11, #1]
   140008df8:	1200118a 	and	w10, w12, #0x1f
   140008dfc:	71037d9f 	cmp	w12, #0xdf
   140008e00:	12001529 	and	w9, w9, #0x3f
   140008e04:	540001a9 	b.ls	0x140008e38  // b.plast
   140008e08:	3940096d 	ldrb	w13, [x11, #2]
   140008e0c:	7103c19f 	cmp	w12, #0xf0
   140008e10:	120015ad 	and	w13, w13, #0x3f
   140008e14:	331a152d 	bfi	w13, w9, #6, #6
   140008e18:	54000143 	b.cc	0x140008e40  // b.lo, b.ul, b.last
   140008e1c:	39400d69 	ldrb	w9, [x11, #3]
   140008e20:	12001529 	and	w9, w9, #0x3f
   140008e24:	331a2da9 	bfi	w9, w13, #6, #12
   140008e28:	330e0949 	bfi	w9, w10, #18, #3
   140008e2c:	7144413f 	cmp	w9, #0x110, lsl #12
   140008e30:	54fffc80 	b.eq	0x140008dc0  // b.none
   140008e34:	14000005 	b	0x140008e48
   140008e38:	331a1149 	bfi	w9, w10, #6, #5
   140008e3c:	14000003 	b	0x140008e48
   140008e40:	3314114d 	bfi	w13, w10, #12, #5
   140008e44:	2a0d03e9 	mov	w9, w13
   140008e48:	7102013f 	cmp	w9, #0x80
   140008e4c:	b9003fe9 	str	w9, [sp, #60]
   140008e50:	54000062 	b.cs	0x140008e5c  // b.hs, b.nlast
   140008e54:	52800029 	mov	w9, #0x1                   	// #1
   140008e58:	14000008 	b	0x140008e78
   140008e5c:	7120013f 	cmp	w9, #0x800
   140008e60:	54000062 	b.cs	0x140008e6c  // b.hs, b.nlast
   140008e64:	52800049 	mov	w9, #0x2                   	// #2
   140008e68:	14000004 	b	0x140008e78
   140008e6c:	7140413f 	cmp	w9, #0x10, lsl #12
   140008e70:	52800069 	mov	w9, #0x3                   	// #3
   140008e74:	9a893529 	cinc	x9, x9, cs	// cs = hs, nlast
   140008e78:	8b080129 	add	x9, x9, x8
   140008e7c:	9100c3ea 	add	x10, sp, #0x30
   140008e80:	b000000b 	adrp	x11, 0x140009000
   140008e84:	911cd16b 	add	x11, x11, #0x734
   140008e88:	f9002bff 	str	xzr, [sp, #80]
   140008e8c:	a90427e8 	stp	x8, x9, [sp, #64]
   140008e90:	9100f3e8 	add	x8, sp, #0x3c
   140008e94:	90000009 	adrp	x9, 0x140008000
   140008e98:	9101e129 	add	x9, x9, #0x78
   140008e9c:	a9082fea 	stp	x10, x11, [sp, #128]
   140008ea0:	910103ea 	add	x10, sp, #0x40
   140008ea4:	a90927e8 	stp	x8, x9, [sp, #144]
   140008ea8:	d0ffffe8 	adrp	x8, 0x140006000
   140008eac:	91074108 	add	x8, x8, #0x1d0
   140008eb0:	910043e9 	add	x9, sp, #0x10
   140008eb4:	a90a23ea 	stp	x10, x8, [sp, #160]
   140008eb8:	b0000008 	adrp	x8, 0x140009000
   140008ebc:	9123e108 	add	x8, x8, #0x8f8
   140008ec0:	910083ea 	add	x10, sp, #0x20
   140008ec4:	a90b23e9 	stp	x9, x8, [sp, #176]
   140008ec8:	b0000069 	adrp	x9, 0x140015000
   140008ecc:	913ae129 	add	x9, x9, #0xeb8
   140008ed0:	a90c23ea 	stp	x10, x8, [sp, #192]
   140008ed4:	528000a8 	mov	w8, #0x5                   	// #5
   140008ed8:	910203ea 	add	x10, sp, #0x80
   140008edc:	a90623e9 	stp	x9, x8, [sp, #96]
   140008ee0:	a90723ea 	stp	x10, x8, [sp, #112]
   140008ee4:	910143e0 	add	x0, sp, #0x50
   140008ee8:	aa0403e1 	mov	x1, x4
   140008eec:	9400051a 	bl	0x14000a354
   140008ef0:	d4200020 	brk	#0x1
   140008ef4:	b4000342 	cbz	x2, 0x140008f5c
   140008ef8:	aa1f03e9 	mov	x9, xzr
   140008efc:	53083c0a 	ubfx	w10, w0, #8, #8
   140008f00:	8b02042b 	add	x11, x1, x2, lsl #1
   140008f04:	aa0103e8 	mov	x8, x1
   140008f08:	91000821 	add	x1, x1, #0x2
   140008f0c:	3940050c 	ldrb	w12, [x8, #1]
   140008f10:	3940010d 	ldrb	w13, [x8]
   140008f14:	8b0c0128 	add	x8, x9, x12
   140008f18:	6b0a01bf 	cmp	w13, w10
   140008f1c:	54000181 	b.ne	0x140008f4c  // b.any
   140008f20:	eb09011f 	cmp	x8, x9
   140008f24:	54000683 	b.cc	0x140008ff4  // b.lo, b.ul, b.last
   140008f28:	eb04011f 	cmp	x8, x4
   140008f2c:	54000708 	b.hi	0x14000900c  // b.pmore
   140008f30:	8b090069 	add	x9, x3, x9
   140008f34:	b40000ec 	cbz	x12, 0x140008f50
   140008f38:	3840152d 	ldrb	w13, [x9], #1
   140008f3c:	d100058c 	sub	x12, x12, #0x1
   140008f40:	6b2001bf 	cmp	w13, w0, uxtb
   140008f44:	54ffff81 	b.ne	0x140008f34  // b.any
   140008f48:	1400001f 	b	0x140008fc4
   140008f4c:	54000088 	b.hi	0x140008f5c  // b.pmore
   140008f50:	aa0803e9 	mov	x9, x8
   140008f54:	eb0b003f 	cmp	x1, x11
   140008f58:	54fffd61 	b.ne	0x140008f04  // b.any
   140008f5c:	b4000386 	cbz	x6, 0x140008fcc
   140008f60:	8b0600a9 	add	x9, x5, x6
   140008f64:	12003c0a 	and	w10, w0, #0xffff
   140008f68:	52800028 	mov	w8, #0x1                   	// #1
   140008f6c:	aa0503ec 	mov	x12, x5
   140008f70:	38c0158d 	ldrsb	w13, [x12], #1
   140008f74:	12001dab 	and	w11, w13, #0xff
   140008f78:	37f800ad 	tbnz	w13, #31, 0x140008f8c
   140008f7c:	aa0c03e5 	mov	x5, x12
   140008f80:	6b0b014a 	subs	w10, w10, w11
   140008f84:	54000165 	b.pl	0x140008fb0  // b.nfrst
   140008f88:	1400000d 	b	0x140008fbc
   140008f8c:	eb09019f 	cmp	x12, x9
   140008f90:	54000240 	b.eq	0x140008fd8  // b.none
   140008f94:	1200196b 	and	w11, w11, #0x7f
   140008f98:	394004ac 	ldrb	w12, [x5, #1]
   140008f9c:	910008a5 	add	x5, x5, #0x2
   140008fa0:	3318196c 	bfi	w12, w11, #8, #7
   140008fa4:	2a0c03eb 	mov	w11, w12
   140008fa8:	6b0c014a 	subs	w10, w10, w12
   140008fac:	54000084 	b.mi	0x140008fbc  // b.first
   140008fb0:	52000108 	eor	w8, w8, #0x1
   140008fb4:	eb0900bf 	cmp	x5, x9
   140008fb8:	54fffda1 	b.ne	0x140008f6c  // b.any
   140008fbc:	12000100 	and	w0, w8, #0x1
   140008fc0:	d65f03c0 	ret
   140008fc4:	120003e0 	and	w0, wzr, #0x1
   140008fc8:	d65f03c0 	ret
   140008fcc:	52800028 	mov	w8, #0x1                   	// #1
   140008fd0:	12000100 	and	w0, w8, #0x1
   140008fd4:	d65f03c0 	ret
   140008fd8:	b0000060 	adrp	x0, 0x140015000
   140008fdc:	9121c000 	add	x0, x0, #0x870
   140008fe0:	b0000062 	adrp	x2, 0x140015000
   140008fe4:	913e0042 	add	x2, x2, #0xf80
   140008fe8:	52800561 	mov	w1, #0x2b                  	// #43
   140008fec:	940004e6 	bl	0x14000a384
   140008ff0:	d4200020 	brk	#0x1
   140008ff4:	b0000062 	adrp	x2, 0x140015000
   140008ff8:	913da042 	add	x2, x2, #0xf68
   140008ffc:	aa0903e0 	mov	x0, x9
   140009000:	aa0803e1 	mov	x1, x8
   140009004:	94000577 	bl	0x14000a5e0
   140009008:	d4200020 	brk	#0x1
   14000900c:	90000062 	adrp	x2, 0x140015000
   140009010:	913da042 	add	x2, x2, #0xf68
   140009014:	aa0803e0 	mov	x0, x8
   140009018:	aa0403e1 	mov	x1, x4
   14000901c:	9400056f 	bl	0x14000a5d8
   140009020:	d4200020 	brk	#0x1
   140009024:	7100801f 	cmp	w0, #0x20
   140009028:	54000062 	b.cs	0x140009034  // b.hs, b.nlast
   14000902c:	2a1f03e0 	mov	w0, wzr
   140009030:	d65f03c0 	ret
   140009034:	7101fc1f 	cmp	w0, #0x7f
   140009038:	54000062 	b.cs	0x140009044  // b.hs, b.nlast
   14000903c:	52800020 	mov	w0, #0x1                   	// #1
   140009040:	d65f03c0 	ret
   140009044:	7140401f 	cmp	w0, #0x10, lsl #12
   140009048:	54000162 	b.cs	0x140009074  // b.hs, b.nlast
   14000904c:	90000061 	adrp	x1, 0x140015000
   140009050:	913e6021 	add	x1, x1, #0xf98
   140009054:	90000063 	adrp	x3, 0x140015000
   140009058:	913fa063 	add	x3, x3, #0xfe8
   14000905c:	b0000065 	adrp	x5, 0x140016000
   140009060:	91041ca5 	add	x5, x5, #0x107
   140009064:	52800502 	mov	w2, #0x28                  	// #40
   140009068:	528023e4 	mov	w4, #0x11f                 	// #287
   14000906c:	528025e6 	mov	w6, #0x12f                 	// #303
   140009070:	17ffffa1 	b	0x140008ef4
   140009074:	7140801f 	cmp	w0, #0x20, lsl #12
   140009078:	54000162 	b.cs	0x1400090a4  // b.hs, b.nlast
   14000907c:	b0000061 	adrp	x1, 0x140016000
   140009080:	9108d821 	add	x1, x1, #0x236
   140009084:	b0000063 	adrp	x3, 0x140016000
   140009088:	910a3863 	add	x3, x3, #0x28e
   14000908c:	b0000065 	adrp	x5, 0x140016000
   140009090:	910d48a5 	add	x5, x5, #0x352
   140009094:	52800582 	mov	w2, #0x2c                  	// #44
   140009098:	52801884 	mov	w4, #0xc4                  	// #196
   14000909c:	52803846 	mov	w6, #0x1c2                 	// #450
   1400090a0:	17ffff95 	b	0x140008ef4
   1400090a4:	90000068 	adrp	x8, 0x140015000
   1400090a8:	90000069 	adrp	x9, 0x140015000
   1400090ac:	9000006a 	adrp	x10, 0x140015000
   1400090b0:	4e040c03 	dup	v3.4s, w0
   1400090b4:	3dc20900 	ldr	q0, [x8, #2080]
   1400090b8:	90000068 	adrp	x8, 0x140015000
   1400090bc:	3dc20d21 	ldr	q1, [x9, #2096]
   1400090c0:	3dc21142 	ldr	q2, [x10, #2112]
   1400090c4:	3dc21504 	ldr	q4, [x8, #2128]
   1400090c8:	90000068 	adrp	x8, 0x140015000
   1400090cc:	4ea18461 	add	v1.4s, v3.4s, v1.4s
   1400090d0:	4e221c62 	and	v2.16b, v3.16b, v2.16b
   1400090d4:	6e184441 	mov	v1.d[1], v2.d[1]
   1400090d8:	3dc21902 	ldr	q2, [x8, #2144]
   1400090dc:	4ea08460 	add	v0.4s, v3.4s, v0.4s
   1400090e0:	6ea03440 	cmhi	v0.4s, v2.4s, v0.4s
   1400090e4:	6ea13482 	cmhi	v2.4s, v4.4s, v1.4s
   1400090e8:	6ea48c21 	cmeq	v1.4s, v1.4s, v4.4s
   1400090ec:	4e421800 	uzp1	v0.8h, v0.8h, v2.8h
   1400090f0:	4e612821 	xtn2	v1.8h, v1.4s
   1400090f4:	0e212821 	xtn	v1.8b, v1.8h
   1400090f8:	0e212800 	xtn	v0.8b, v0.8h
   1400090fc:	6e0e3420 	mov	v0.h[3], v1.h[3]
   140009100:	2e30a800 	umaxv	b0, v0.8b
   140009104:	1e260008 	fmov	w8, s0
   140009108:	36000068 	tbz	w8, #0, 0x140009114
   14000910c:	2a1f03e0 	mov	w0, wzr
   140009110:	d65f03c0 	ret
   140009114:	52803e09 	mov	w9, #0x1f0                 	// #496
   140009118:	51444008 	sub	w8, w0, #0x110, lsl #12
   14000911c:	72bfffa9 	movk	w9, #0xfffd, lsl #16
   140009120:	6b09011f 	cmp	w8, w9
   140009124:	1a9f27e0 	cset	w0, cc	// cc = lo, ul, last
   140009128:	d65f03c0 	ret
   14000912c:	d10243ff 	sub	sp, sp, #0x90
   140009130:	52800fe8 	mov	w8, #0x7f                  	// #127
   140009134:	52800ae9 	mov	w9, #0x57                  	// #87
   140009138:	b940000c 	ldr	w12, [x0]
   14000913c:	5280060a 	mov	w10, #0x30                  	// #48
   140009140:	910003eb 	mov	x11, sp
   140009144:	f90043fe 	str	x30, [sp, #128]
   140009148:	12000d8d 	and	w13, w12, #0xf
   14000914c:	53047d8e 	lsr	w14, w12, #4
   140009150:	710029bf 	cmp	w13, #0xa
   140009154:	aa0803e0 	mov	x0, x8
   140009158:	1a89314f 	csel	w15, w10, w9, cc	// cc = lo, ul, last
   14000915c:	71003d9f 	cmp	w12, #0xf
   140009160:	d1000508 	sub	x8, x8, #0x1
   140009164:	2a0e03ec 	mov	w12, w14
   140009168:	0b0d01ed 	add	w13, w15, w13
   14000916c:	3820696d 	strb	w13, [x11, x0]
   140009170:	54fffec8 	b.hi	0x140009148  // b.pmore
   140009174:	f102041f 	cmp	x0, #0x81
   140009178:	54000202 	b.cs	0x1400091b8  // b.hs, b.nlast
   14000917c:	91000408 	add	x8, x0, #0x1
   140009180:	910003e9 	mov	x9, sp
   140009184:	8b080129 	add	x9, x9, x8
   140009188:	5280102a 	mov	w10, #0x81                  	// #129
   14000918c:	d1000524 	sub	x4, x9, #0x1
   140009190:	cb080145 	sub	x5, x10, x8
   140009194:	90000062 	adrp	x2, 0x140015000
   140009198:	912cc842 	add	x2, x2, #0xb32
   14000919c:	aa0103e0 	mov	x0, x1
   1400091a0:	52800021 	mov	w1, #0x1                   	// #1
   1400091a4:	52800043 	mov	w3, #0x2                   	// #2
   1400091a8:	97fff70c 	bl	0x140006dd8
   1400091ac:	f94043fe 	ldr	x30, [sp, #128]
   1400091b0:	910243ff 	add	sp, sp, #0x90
   1400091b4:	d65f03c0 	ret
   1400091b8:	90000062 	adrp	x2, 0x140015000
   1400091bc:	912c6042 	add	x2, x2, #0xb18
   1400091c0:	52801001 	mov	w1, #0x80                  	// #128
   1400091c4:	94000503 	bl	0x14000a5d0
   1400091c8:	d4200020 	brk	#0x1
   1400091cc:	d10243ff 	sub	sp, sp, #0x90
   1400091d0:	52800fe8 	mov	w8, #0x7f                  	// #127
   1400091d4:	f9400009 	ldr	x9, [x0]
   1400091d8:	910003ea 	mov	x10, sp
   1400091dc:	f90043fe 	str	x30, [sp, #128]
   1400091e0:	d341fd2b 	lsr	x11, x9, #1
   1400091e4:	5280060c 	mov	w12, #0x30                  	// #48
   1400091e8:	3300012c 	bfxil	w12, w9, #0, #1
   1400091ec:	f100053f 	cmp	x9, #0x1
   1400091f0:	aa0803e0 	mov	x0, x8
   1400091f4:	d1000508 	sub	x8, x8, #0x1
   1400091f8:	aa0b03e9 	mov	x9, x11
   1400091fc:	3820694c 	strb	w12, [x10, x0]
   140009200:	54ffff08 	b.hi	0x1400091e0  // b.pmore
   140009204:	f102041f 	cmp	x0, #0x81
   140009208:	54000202 	b.cs	0x140009248  // b.hs, b.nlast
   14000920c:	91000408 	add	x8, x0, #0x1
   140009210:	910003e9 	mov	x9, sp
   140009214:	8b080129 	add	x9, x9, x8
   140009218:	5280102a 	mov	w10, #0x81                  	// #129
   14000921c:	d1000524 	sub	x4, x9, #0x1
   140009220:	cb080145 	sub	x5, x10, x8
   140009224:	90000062 	adrp	x2, 0x140015000
   140009228:	912cc042 	add	x2, x2, #0xb30
   14000922c:	aa0103e0 	mov	x0, x1
   140009230:	52800021 	mov	w1, #0x1                   	// #1
   140009234:	52800043 	mov	w3, #0x2                   	// #2
   140009238:	97fff6e8 	bl	0x140006dd8
   14000923c:	f94043fe 	ldr	x30, [sp, #128]
   140009240:	910243ff 	add	sp, sp, #0x90
   140009244:	d65f03c0 	ret
   140009248:	90000062 	adrp	x2, 0x140015000
   14000924c:	912c6042 	add	x2, x2, #0xb18
   140009250:	52801001 	mov	w1, #0x80                  	// #128
   140009254:	940004df 	bl	0x14000a5d0
   140009258:	d4200020 	brk	#0x1
   14000925c:	d10243ff 	sub	sp, sp, #0x90
   140009260:	52800fe8 	mov	w8, #0x7f                  	// #127
   140009264:	52800ae9 	mov	w9, #0x57                  	// #87
   140009268:	f940000c 	ldr	x12, [x0]
   14000926c:	5280060a 	mov	w10, #0x30                  	// #48
   140009270:	910003eb 	mov	x11, sp
   140009274:	f90043fe 	str	x30, [sp, #128]
   140009278:	12000d8d 	and	w13, w12, #0xf
   14000927c:	d344fd8e 	lsr	x14, x12, #4
   140009280:	710029bf 	cmp	w13, #0xa
   140009284:	aa0803e0 	mov	x0, x8
   140009288:	1a89314f 	csel	w15, w10, w9, cc	// cc = lo, ul, last
   14000928c:	f1003d9f 	cmp	x12, #0xf
   140009290:	d1000508 	sub	x8, x8, #0x1
   140009294:	aa0e03ec 	mov	x12, x14
   140009298:	0b0d01ed 	add	w13, w15, w13
   14000929c:	3820696d 	strb	w13, [x11, x0]
   1400092a0:	54fffec8 	b.hi	0x140009278  // b.pmore
   1400092a4:	f102041f 	cmp	x0, #0x81
   1400092a8:	54000202 	b.cs	0x1400092e8  // b.hs, b.nlast
   1400092ac:	91000408 	add	x8, x0, #0x1
   1400092b0:	910003e9 	mov	x9, sp
   1400092b4:	8b080129 	add	x9, x9, x8
   1400092b8:	5280102a 	mov	w10, #0x81                  	// #129
   1400092bc:	d1000524 	sub	x4, x9, #0x1
   1400092c0:	cb080145 	sub	x5, x10, x8
   1400092c4:	90000062 	adrp	x2, 0x140015000
   1400092c8:	912cc842 	add	x2, x2, #0xb32
   1400092cc:	aa0103e0 	mov	x0, x1
   1400092d0:	52800021 	mov	w1, #0x1                   	// #1
   1400092d4:	52800043 	mov	w3, #0x2                   	// #2
   1400092d8:	97fff6c0 	bl	0x140006dd8
   1400092dc:	f94043fe 	ldr	x30, [sp, #128]
   1400092e0:	910243ff 	add	sp, sp, #0x90
   1400092e4:	d65f03c0 	ret
   1400092e8:	90000062 	adrp	x2, 0x140015000
   1400092ec:	912c6042 	add	x2, x2, #0xb18
   1400092f0:	52801001 	mov	w1, #0x80                  	// #128
   1400092f4:	940004b7 	bl	0x14000a5d0
   1400092f8:	d4200020 	brk	#0x1
   1400092fc:	d10243ff 	sub	sp, sp, #0x90
   140009300:	52800fe8 	mov	w8, #0x7f                  	// #127
   140009304:	528006e9 	mov	w9, #0x37                  	// #55
   140009308:	f940000c 	ldr	x12, [x0]
   14000930c:	5280060a 	mov	w10, #0x30                  	// #48
   140009310:	910003eb 	mov	x11, sp
   140009314:	f90043fe 	str	x30, [sp, #128]
   140009318:	12000d8d 	and	w13, w12, #0xf
   14000931c:	d344fd8e 	lsr	x14, x12, #4
   140009320:	710029bf 	cmp	w13, #0xa
   140009324:	aa0803e0 	mov	x0, x8
   140009328:	1a89314f 	csel	w15, w10, w9, cc	// cc = lo, ul, last
   14000932c:	f1003d9f 	cmp	x12, #0xf
   140009330:	d1000508 	sub	x8, x8, #0x1
   140009334:	aa0e03ec 	mov	x12, x14
   140009338:	0b0d01ed 	add	w13, w15, w13
   14000933c:	3820696d 	strb	w13, [x11, x0]
   140009340:	54fffec8 	b.hi	0x140009318  // b.pmore
   140009344:	f102041f 	cmp	x0, #0x81
   140009348:	54000202 	b.cs	0x140009388  // b.hs, b.nlast
   14000934c:	91000408 	add	x8, x0, #0x1
   140009350:	910003e9 	mov	x9, sp
   140009354:	8b080129 	add	x9, x9, x8
   140009358:	5280102a 	mov	w10, #0x81                  	// #129
   14000935c:	d1000524 	sub	x4, x9, #0x1
   140009360:	cb080145 	sub	x5, x10, x8
   140009364:	90000062 	adrp	x2, 0x140015000
   140009368:	912cc842 	add	x2, x2, #0xb32
   14000936c:	aa0103e0 	mov	x0, x1
   140009370:	52800021 	mov	w1, #0x1                   	// #1
   140009374:	52800043 	mov	w3, #0x2                   	// #2
   140009378:	97fff698 	bl	0x140006dd8
   14000937c:	f94043fe 	ldr	x30, [sp, #128]
   140009380:	910243ff 	add	sp, sp, #0x90
   140009384:	d65f03c0 	ret
   140009388:	90000062 	adrp	x2, 0x140015000
   14000938c:	912c6042 	add	x2, x2, #0xb18
   140009390:	52801001 	mov	w1, #0x80                  	// #128
   140009394:	9400048f 	bl	0x14000a5d0
   140009398:	d4200020 	brk	#0x1
   14000939c:	d10243ff 	sub	sp, sp, #0x90
   1400093a0:	b9403028 	ldr	w8, [x1, #48]
   1400093a4:	f90043fe 	str	x30, [sp, #128]
   1400093a8:	37200528 	tbnz	w8, #4, 0x14000944c
   1400093ac:	37280728 	tbnz	w8, #5, 0x140009490
   1400093b0:	f9400008 	ldr	x8, [x0]
   1400093b4:	d344fd09 	lsr	x9, x8, #4
   1400093b8:	f109c53f 	cmp	x9, #0x271
   1400093bc:	54000ac3 	b.cc	0x140009514  // b.lo, b.ul, b.last
   1400093c0:	d28b2969 	mov	x9, #0x594b                	// #22859
   1400093c4:	529c1fef 	mov	w15, #0xe0ff                	// #57599
   1400093c8:	f2a710c9 	movk	x9, #0x3886, lsl #16
   1400093cc:	aa1f03ed 	mov	x13, xzr
   1400093d0:	f2d8bac9 	movk	x9, #0xc5d6, lsl #32
   1400093d4:	5284e20a 	mov	w10, #0x2710                	// #10000
   1400093d8:	f2e68da9 	movk	x9, #0x346d, lsl #48
   1400093dc:	52828f6b 	mov	w11, #0x147b                	// #5243
   1400093e0:	52800c8c 	mov	w12, #0x64                  	// #100
   1400093e4:	910003ee 	mov	x14, sp
   1400093e8:	72a0beaf 	movk	w15, #0x5f5, lsl #16
   1400093ec:	90000070 	adrp	x16, 0x140015000
   1400093f0:	912cd210 	add	x16, x16, #0xb34
   1400093f4:	aa0803e0 	mov	x0, x8
   1400093f8:	9bc97d08 	umulh	x8, x8, x9
   1400093fc:	8b0d01c4 	add	x4, x14, x13
   140009400:	eb0f001f 	cmp	x0, x15
   140009404:	d34bfd08 	lsr	x8, x8, #11
   140009408:	1b0a8111 	msub	w17, w8, w10, w0
   14000940c:	53023e22 	ubfx	w2, w17, #2, #14
   140009410:	1b0b7c42 	mul	w2, w2, w11
   140009414:	53117c42 	lsr	w2, w2, #17
   140009418:	1b0cc451 	msub	w17, w2, w12, w17
   14000941c:	78625a02 	ldrh	w2, [x16, w2, uxtw #1]
   140009420:	92403e23 	and	x3, x17, #0xffff
   140009424:	aa0d03f1 	mov	x17, x13
   140009428:	d10011ad 	sub	x13, x13, #0x4
   14000942c:	78637a03 	ldrh	w3, [x16, x3, lsl #1]
   140009430:	78023082 	sturh	w2, [x4, #35]
   140009434:	78025083 	sturh	w3, [x4, #37]
   140009438:	54fffde8 	b.hi	0x1400093f4  // b.pmore
   14000943c:	91008e29 	add	x9, x17, #0x23
   140009440:	f1018d1f 	cmp	x8, #0x63
   140009444:	540006e8 	b.hi	0x140009520  // b.pmore
   140009448:	14000046 	b	0x140009560
   14000944c:	f9400008 	ldr	x8, [x0]
   140009450:	52800fe9 	mov	w9, #0x7f                  	// #127
   140009454:	52800aea 	mov	w10, #0x57                  	// #87
   140009458:	5280060b 	mov	w11, #0x30                  	// #48
   14000945c:	910003ec 	mov	x12, sp
   140009460:	12000d0d 	and	w13, w8, #0xf
   140009464:	d344fd0e 	lsr	x14, x8, #4
   140009468:	710029bf 	cmp	w13, #0xa
   14000946c:	aa0903e0 	mov	x0, x9
   140009470:	1a8a316f 	csel	w15, w11, w10, cc	// cc = lo, ul, last
   140009474:	f1003d1f 	cmp	x8, #0xf
   140009478:	d1000529 	sub	x9, x9, #0x1
   14000947c:	aa0e03e8 	mov	x8, x14
   140009480:	0b0d01ed 	add	w13, w15, w13
   140009484:	3820698d 	strb	w13, [x12, x0]
   140009488:	54fffec8 	b.hi	0x140009460  // b.pmore
   14000948c:	14000011 	b	0x1400094d0
   140009490:	f9400008 	ldr	x8, [x0]
   140009494:	52800fe9 	mov	w9, #0x7f                  	// #127
   140009498:	528006ea 	mov	w10, #0x37                  	// #55
   14000949c:	5280060b 	mov	w11, #0x30                  	// #48
   1400094a0:	910003ec 	mov	x12, sp
   1400094a4:	12000d0d 	and	w13, w8, #0xf
   1400094a8:	d344fd0e 	lsr	x14, x8, #4
   1400094ac:	710029bf 	cmp	w13, #0xa
   1400094b0:	aa0903e0 	mov	x0, x9
   1400094b4:	1a8a316f 	csel	w15, w11, w10, cc	// cc = lo, ul, last
   1400094b8:	f1003d1f 	cmp	x8, #0xf
   1400094bc:	d1000529 	sub	x9, x9, #0x1
   1400094c0:	aa0e03e8 	mov	x8, x14
   1400094c4:	0b0d01ed 	add	w13, w15, w13
   1400094c8:	3820698d 	strb	w13, [x12, x0]
   1400094cc:	54fffec8 	b.hi	0x1400094a4  // b.pmore
   1400094d0:	f102041f 	cmp	x0, #0x81
   1400094d4:	540007e2 	b.cs	0x1400095d0  // b.hs, b.nlast
   1400094d8:	91000408 	add	x8, x0, #0x1
   1400094dc:	910003e9 	mov	x9, sp
   1400094e0:	8b080129 	add	x9, x9, x8
   1400094e4:	5280102a 	mov	w10, #0x81                  	// #129
   1400094e8:	d1000524 	sub	x4, x9, #0x1
   1400094ec:	cb080145 	sub	x5, x10, x8
   1400094f0:	90000062 	adrp	x2, 0x140015000
   1400094f4:	912cc842 	add	x2, x2, #0xb32
   1400094f8:	aa0103e0 	mov	x0, x1
   1400094fc:	52800021 	mov	w1, #0x1                   	// #1
   140009500:	52800043 	mov	w3, #0x2                   	// #2
   140009504:	97fff635 	bl	0x140006dd8
   140009508:	f94043fe 	ldr	x30, [sp, #128]
   14000950c:	910243ff 	add	sp, sp, #0x90
   140009510:	d65f03c0 	ret
   140009514:	528004e9 	mov	w9, #0x27                  	// #39
   140009518:	f1018d1f 	cmp	x8, #0x63
   14000951c:	54000229 	b.ls	0x140009560  // b.plast
   140009520:	53023d0a 	ubfx	w10, w8, #2, #14
   140009524:	52828f6b 	mov	w11, #0x147b                	// #5243
   140009528:	9000006c 	adrp	x12, 0x140015000
   14000952c:	912cd18c 	add	x12, x12, #0xb34
   140009530:	1b0b7d4a 	mul	w10, w10, w11
   140009534:	52800c8b 	mov	w11, #0x64                  	// #100
   140009538:	910003ed 	mov	x13, sp
   14000953c:	53117d4a 	lsr	w10, w10, #17
   140009540:	8b0901ad 	add	x13, x13, x9
   140009544:	1b0ba148 	msub	w8, w10, w11, w8
   140009548:	d100092b 	sub	x11, x9, #0x2
   14000954c:	aa0b03e9 	mov	x9, x11
   140009550:	92403d08 	and	x8, x8, #0xffff
   140009554:	7868798c 	ldrh	w12, [x12, x8, lsl #1]
   140009558:	aa0a03e8 	mov	x8, x10
   14000955c:	781fe1ac 	sturh	w12, [x13, #-2]
   140009560:	f100291f 	cmp	x8, #0xa
   140009564:	540000e2 	b.cs	0x140009580  // b.hs, b.nlast
   140009568:	910003ea 	mov	x10, sp
   14000956c:	1100c10b 	add	w11, w8, #0x30
   140009570:	8b09014a 	add	x10, x10, x9
   140009574:	d1000528 	sub	x8, x9, #0x1
   140009578:	381ff14b 	sturb	w11, [x10, #-1]
   14000957c:	14000008 	b	0x14000959c
   140009580:	9000006a 	adrp	x10, 0x140015000
   140009584:	912cd14a 	add	x10, x10, #0xb34
   140009588:	910003eb 	mov	x11, sp
   14000958c:	7868794a 	ldrh	w10, [x10, x8, lsl #1]
   140009590:	8b09016b 	add	x11, x11, x9
   140009594:	d1000928 	sub	x8, x9, #0x2
   140009598:	781fe16a 	sturh	w10, [x11, #-2]
   14000959c:	910003e9 	mov	x9, sp
   1400095a0:	528004ea 	mov	w10, #0x27                  	// #39
   1400095a4:	8b080124 	add	x4, x9, x8
   1400095a8:	cb080145 	sub	x5, x10, x8
   1400095ac:	90000062 	adrp	x2, 0x140015000
   1400095b0:	9121c042 	add	x2, x2, #0x870
   1400095b4:	aa0103e0 	mov	x0, x1
   1400095b8:	52800021 	mov	w1, #0x1                   	// #1
   1400095bc:	aa1f03e3 	mov	x3, xzr
   1400095c0:	97fff606 	bl	0x140006dd8
   1400095c4:	f94043fe 	ldr	x30, [sp, #128]
   1400095c8:	910243ff 	add	sp, sp, #0x90
   1400095cc:	d65f03c0 	ret
   1400095d0:	90000062 	adrp	x2, 0x140015000
   1400095d4:	912c6042 	add	x2, x2, #0xb18
   1400095d8:	52801001 	mov	w1, #0x80                  	// #128
   1400095dc:	940003fd 	bl	0x14000a5d0
   1400095e0:	d4200020 	brk	#0x1
   1400095e4:	d10103ff 	sub	sp, sp, #0x40
   1400095e8:	b9400009 	ldr	w9, [x0]
   1400095ec:	f9001bfe 	str	x30, [sp, #48]
   1400095f0:	d3447d28 	ubfx	x8, x9, #4, #28
   1400095f4:	7109c51f 	cmp	w8, #0x271
   1400095f8:	90000068 	adrp	x8, 0x140015000
   1400095fc:	912cd108 	add	x8, x8, #0xb34
   140009600:	54000443 	b.cc	0x140009688  // b.lo, b.ul, b.last
   140009604:	d28b296a 	mov	x10, #0x594b                	// #22859
   140009608:	529c1ff0 	mov	w16, #0xe0ff                	// #57599
   14000960c:	f2a710ca 	movk	x10, #0x3886, lsl #16
   140009610:	aa1f03ee 	mov	x14, xzr
   140009614:	f2d8baca 	movk	x10, #0xc5d6, lsl #32
   140009618:	5284e20b 	mov	w11, #0x2710                	// #10000
   14000961c:	f2e68daa 	movk	x10, #0x346d, lsl #48
   140009620:	52828f6c 	mov	w12, #0x147b                	// #5243
   140009624:	52800c8d 	mov	w13, #0x64                  	// #100
   140009628:	910027ef 	add	x15, sp, #0x9
   14000962c:	72a0beb0 	movk	w16, #0x5f5, lsl #16
   140009630:	aa0903e0 	mov	x0, x9
   140009634:	9bca7d29 	umulh	x9, x9, x10
   140009638:	8b0e01e4 	add	x4, x15, x14
   14000963c:	eb10001f 	cmp	x0, x16
   140009640:	d34bfd29 	lsr	x9, x9, #11
   140009644:	1b0b8131 	msub	w17, w9, w11, w0
   140009648:	53023e22 	ubfx	w2, w17, #2, #14
   14000964c:	1b0c7c42 	mul	w2, w2, w12
   140009650:	53117c42 	lsr	w2, w2, #17
   140009654:	1b0dc451 	msub	w17, w2, w13, w17
   140009658:	78625902 	ldrh	w2, [x8, w2, uxtw #1]
   14000965c:	92403e23 	and	x3, x17, #0xffff
   140009660:	aa0e03f1 	mov	x17, x14
   140009664:	d10011ce 	sub	x14, x14, #0x4
   140009668:	78637903 	ldrh	w3, [x8, x3, lsl #1]
   14000966c:	78023082 	sturh	w2, [x4, #35]
   140009670:	78025083 	sturh	w3, [x4, #37]
   140009674:	54fffde8 	b.hi	0x140009630  // b.pmore
   140009678:	91008e2a 	add	x10, x17, #0x23
   14000967c:	f1018d3f 	cmp	x9, #0x63
   140009680:	540000a8 	b.hi	0x140009694  // b.pmore
   140009684:	14000012 	b	0x1400096cc
   140009688:	528004ea 	mov	w10, #0x27                  	// #39
   14000968c:	f1018d3f 	cmp	x9, #0x63
   140009690:	540001e9 	b.ls	0x1400096cc  // b.plast
   140009694:	53023d2b 	ubfx	w11, w9, #2, #14
   140009698:	52828f6c 	mov	w12, #0x147b                	// #5243
   14000969c:	910027ed 	add	x13, sp, #0x9
   1400096a0:	1b0c7d6b 	mul	w11, w11, w12
   1400096a4:	52800c8c 	mov	w12, #0x64                  	// #100
   1400096a8:	8b0a01ad 	add	x13, x13, x10
   1400096ac:	53117d6b 	lsr	w11, w11, #17
   1400096b0:	1b0ca569 	msub	w9, w11, w12, w9
   1400096b4:	d100094c 	sub	x12, x10, #0x2
   1400096b8:	aa0c03ea 	mov	x10, x12
   1400096bc:	92403d29 	and	x9, x9, #0xffff
   1400096c0:	7869790e 	ldrh	w14, [x8, x9, lsl #1]
   1400096c4:	aa0b03e9 	mov	x9, x11
   1400096c8:	781fe1ae 	sturh	w14, [x13, #-2]
   1400096cc:	f100293f 	cmp	x9, #0xa
   1400096d0:	540000e2 	b.cs	0x1400096ec  // b.hs, b.nlast
   1400096d4:	910027e8 	add	x8, sp, #0x9
   1400096d8:	1100c129 	add	w9, w9, #0x30
   1400096dc:	8b0a010b 	add	x11, x8, x10
   1400096e0:	d1000548 	sub	x8, x10, #0x1
   1400096e4:	381ff169 	sturb	w9, [x11, #-1]
   1400096e8:	14000006 	b	0x140009700
   1400096ec:	910027eb 	add	x11, sp, #0x9
   1400096f0:	78697909 	ldrh	w9, [x8, x9, lsl #1]
   1400096f4:	8b0a016b 	add	x11, x11, x10
   1400096f8:	d1000948 	sub	x8, x10, #0x2
   1400096fc:	781fe169 	sturh	w9, [x11, #-2]
   140009700:	910027e9 	add	x9, sp, #0x9
   140009704:	528004ea 	mov	w10, #0x27                  	// #39
   140009708:	8b080124 	add	x4, x9, x8
   14000970c:	cb080145 	sub	x5, x10, x8
   140009710:	90000062 	adrp	x2, 0x140015000
   140009714:	9121c042 	add	x2, x2, #0x870
   140009718:	aa0103e0 	mov	x0, x1
   14000971c:	52800021 	mov	w1, #0x1                   	// #1
   140009720:	aa1f03e3 	mov	x3, xzr
   140009724:	97fff5ad 	bl	0x140006dd8
   140009728:	f9401bfe 	ldr	x30, [sp, #48]
   14000972c:	910103ff 	add	sp, sp, #0x40
   140009730:	d65f03c0 	ret
   140009734:	d10103ff 	sub	sp, sp, #0x40
   140009738:	f9400009 	ldr	x9, [x0]
   14000973c:	f9001bfe 	str	x30, [sp, #48]
   140009740:	d344fd28 	lsr	x8, x9, #4
   140009744:	f109c51f 	cmp	x8, #0x271
   140009748:	90000068 	adrp	x8, 0x140015000
   14000974c:	912cd108 	add	x8, x8, #0xb34
   140009750:	54000443 	b.cc	0x1400097d8  // b.lo, b.ul, b.last
   140009754:	d28b296a 	mov	x10, #0x594b                	// #22859
   140009758:	529c1ff0 	mov	w16, #0xe0ff                	// #57599
   14000975c:	f2a710ca 	movk	x10, #0x3886, lsl #16
   140009760:	aa1f03ee 	mov	x14, xzr
   140009764:	f2d8baca 	movk	x10, #0xc5d6, lsl #32
   140009768:	5284e20b 	mov	w11, #0x2710                	// #10000
   14000976c:	f2e68daa 	movk	x10, #0x346d, lsl #48
   140009770:	52828f6c 	mov	w12, #0x147b                	// #5243
   140009774:	52800c8d 	mov	w13, #0x64                  	// #100
   140009778:	910027ef 	add	x15, sp, #0x9
   14000977c:	72a0beb0 	movk	w16, #0x5f5, lsl #16
   140009780:	aa0903e0 	mov	x0, x9
   140009784:	9bca7d29 	umulh	x9, x9, x10
   140009788:	8b0e01e4 	add	x4, x15, x14
   14000978c:	eb10001f 	cmp	x0, x16
   140009790:	d34bfd29 	lsr	x9, x9, #11
   140009794:	1b0b8131 	msub	w17, w9, w11, w0
   140009798:	53023e22 	ubfx	w2, w17, #2, #14
   14000979c:	1b0c7c42 	mul	w2, w2, w12
   1400097a0:	53117c42 	lsr	w2, w2, #17
   1400097a4:	1b0dc451 	msub	w17, w2, w13, w17
   1400097a8:	78625902 	ldrh	w2, [x8, w2, uxtw #1]
   1400097ac:	92403e23 	and	x3, x17, #0xffff
   1400097b0:	aa0e03f1 	mov	x17, x14
   1400097b4:	d10011ce 	sub	x14, x14, #0x4
   1400097b8:	78637903 	ldrh	w3, [x8, x3, lsl #1]
   1400097bc:	78023082 	sturh	w2, [x4, #35]
   1400097c0:	78025083 	sturh	w3, [x4, #37]
   1400097c4:	54fffde8 	b.hi	0x140009780  // b.pmore
   1400097c8:	91008e2a 	add	x10, x17, #0x23
   1400097cc:	f1018d3f 	cmp	x9, #0x63
   1400097d0:	540000a8 	b.hi	0x1400097e4  // b.pmore
   1400097d4:	14000012 	b	0x14000981c
   1400097d8:	528004ea 	mov	w10, #0x27                  	// #39
   1400097dc:	f1018d3f 	cmp	x9, #0x63
   1400097e0:	540001e9 	b.ls	0x14000981c  // b.plast
   1400097e4:	53023d2b 	ubfx	w11, w9, #2, #14
   1400097e8:	52828f6c 	mov	w12, #0x147b                	// #5243
   1400097ec:	910027ed 	add	x13, sp, #0x9
   1400097f0:	1b0c7d6b 	mul	w11, w11, w12
   1400097f4:	52800c8c 	mov	w12, #0x64                  	// #100
   1400097f8:	8b0a01ad 	add	x13, x13, x10
   1400097fc:	53117d6b 	lsr	w11, w11, #17
   140009800:	1b0ca569 	msub	w9, w11, w12, w9
   140009804:	d100094c 	sub	x12, x10, #0x2
   140009808:	aa0c03ea 	mov	x10, x12
   14000980c:	92403d29 	and	x9, x9, #0xffff
   140009810:	7869790e 	ldrh	w14, [x8, x9, lsl #1]
   140009814:	aa0b03e9 	mov	x9, x11
   140009818:	781fe1ae 	sturh	w14, [x13, #-2]
   14000981c:	f100293f 	cmp	x9, #0xa
   140009820:	540000e2 	b.cs	0x14000983c  // b.hs, b.nlast
   140009824:	910027e8 	add	x8, sp, #0x9
   140009828:	1100c129 	add	w9, w9, #0x30
   14000982c:	8b0a010b 	add	x11, x8, x10
   140009830:	d1000548 	sub	x8, x10, #0x1
   140009834:	381ff169 	sturb	w9, [x11, #-1]
   140009838:	14000006 	b	0x140009850
   14000983c:	910027eb 	add	x11, sp, #0x9
   140009840:	78697909 	ldrh	w9, [x8, x9, lsl #1]
   140009844:	8b0a016b 	add	x11, x11, x10
   140009848:	d1000948 	sub	x8, x10, #0x2
   14000984c:	781fe169 	sturh	w9, [x11, #-2]
   140009850:	910027e9 	add	x9, sp, #0x9
   140009854:	528004ea 	mov	w10, #0x27                  	// #39
   140009858:	8b080124 	add	x4, x9, x8
   14000985c:	cb080145 	sub	x5, x10, x8
   140009860:	90000062 	adrp	x2, 0x140015000
   140009864:	9121c042 	add	x2, x2, #0x870
   140009868:	aa0103e0 	mov	x0, x1
   14000986c:	52800021 	mov	w1, #0x1                   	// #1
   140009870:	aa1f03e3 	mov	x3, xzr
   140009874:	97fff559 	bl	0x140006dd8
   140009878:	f9401bfe 	ldr	x30, [sp, #48]
   14000987c:	910103ff 	add	sp, sp, #0x40
   140009880:	d65f03c0 	ret
   140009884:	a9402020 	ldp	x0, x8, [x1]
   140009888:	b0000061 	adrp	x1, 0x140016000
   14000988c:	9114f021 	add	x1, x1, #0x53c
   140009890:	528000a2 	mov	w2, #0x5                   	// #5
   140009894:	f9400d03 	ldr	x3, [x8, #24]
   140009898:	d61f0060 	br	x3
   14000989c:	f9400000 	ldr	x0, [x0]
   1400098a0:	17fffebf 	b	0x14000939c
   1400098a4:	a9402000 	ldp	x0, x8, [x0]
   1400098a8:	f9400d02 	ldr	x2, [x8, #24]
   1400098ac:	d61f0040 	br	x2
   1400098b0:	f9400009 	ldr	x9, [x0]
   1400098b4:	aa0103e8 	mov	x8, x1
   1400098b8:	aa0803e0 	mov	x0, x8
   1400098bc:	a9400921 	ldp	x1, x2, [x9]
   1400098c0:	17fff680 	b	0x1400072c0
   1400098c4:	d10103ff 	sub	sp, sp, #0x40
   1400098c8:	f9400008 	ldr	x8, [x0]
   1400098cc:	910003e2 	mov	x2, sp
   1400098d0:	a9400420 	ldp	x0, x1, [x1]
   1400098d4:	f9001bfe 	str	x30, [sp, #48]
   1400098d8:	ad400500 	ldp	q0, q1, [x8]
   1400098dc:	3dc00902 	ldr	q2, [x8, #32]
   1400098e0:	ad0007e0 	stp	q0, q1, [sp]
   1400098e4:	3d800be2 	str	q2, [sp, #32]
   1400098e8:	97fff4b4 	bl	0x140006bb8
   1400098ec:	f9401bfe 	ldr	x30, [sp, #48]
   1400098f0:	910103ff 	add	sp, sp, #0x40
   1400098f4:	d65f03c0 	ret
   1400098f8:	aa0103e8 	mov	x8, x1
   1400098fc:	a9400801 	ldp	x1, x2, [x0]
   140009900:	aa0803e0 	mov	x0, x8
   140009904:	17fff66f 	b	0x1400072c0
   140009908:	aa1f03e8 	mov	x8, xzr
   14000990c:	53155009 	lsl	w9, w0, #11
   140009910:	5280042d 	mov	w13, #0x21                  	// #33
   140009914:	5280042b 	mov	w11, #0x21                  	// #33
   140009918:	b000006a 	adrp	x10, 0x140016000
   14000991c:	9115114a 	add	x10, x10, #0x544
   140009920:	14000004 	b	0x140009930
   140009924:	eb08018d 	subs	x13, x12, x8
   140009928:	aa0c03eb 	mov	x11, x12
   14000992c:	54000209 	b.ls	0x14000996c  // b.plast
   140009930:	8b4d050c 	add	x12, x8, x13, lsr #1
   140009934:	b86c794d 	ldr	w13, [x10, x12, lsl #2]
   140009938:	531551ad 	lsl	w13, w13, #11
   14000993c:	6b0901bf 	cmp	w13, w9
   140009940:	1a9f07ed 	cset	w13, ne	// ne = any
   140009944:	5a9f21ad 	csinv	w13, w13, wzr, cs	// cs = hs, nlast
   140009948:	710005bf 	cmp	w13, #0x1
   14000994c:	54fffec0 	b.eq	0x140009924  // b.none
   140009950:	12001da8 	and	w8, w13, #0xff
   140009954:	7103fd1f 	cmp	w8, #0xff
   140009958:	54000081 	b.ne	0x140009968  // b.any
   14000995c:	91000588 	add	x8, x12, #0x1
   140009960:	aa0b03ec 	mov	x12, x11
   140009964:	17fffff0 	b	0x140009924
   140009968:	91000588 	add	x8, x12, #0x1
   14000996c:	f100811f 	cmp	x8, #0x20
   140009970:	540006c8 	b.hi	0x140009a48  // b.pmore
   140009974:	b8687949 	ldr	w9, [x10, x8, lsl #2]
   140009978:	f100811f 	cmp	x8, #0x20
   14000997c:	d355fd29 	lsr	x9, x9, #21
   140009980:	54000141 	b.ne	0x1400099a8  // b.any
   140009984:	52805aeb 	mov	w11, #0x2d7                 	// #727
   140009988:	528003e8 	mov	w8, #0x1f                  	// #31
   14000998c:	b8687948 	ldr	w8, [x10, x8, lsl #2]
   140009990:	1200510a 	and	w10, w8, #0x1fffff
   140009994:	aa2903e8 	mvn	x8, x9
   140009998:	ab08017f 	cmn	x11, x8
   14000999c:	54000241 	b.ne	0x1400099e4  // b.any
   1400099a0:	12000120 	and	w0, w9, #0x1
   1400099a4:	d65f03c0 	ret
   1400099a8:	8b08094b 	add	x11, x10, x8, lsl #2
   1400099ac:	b940056b 	ldr	w11, [x11, #4]
   1400099b0:	d355fd6b 	lsr	x11, x11, #21
   1400099b4:	b4000108 	cbz	x8, 0x1400099d4
   1400099b8:	d1000508 	sub	x8, x8, #0x1
   1400099bc:	b8687948 	ldr	w8, [x10, x8, lsl #2]
   1400099c0:	1200510a 	and	w10, w8, #0x1fffff
   1400099c4:	aa2903e8 	mvn	x8, x9
   1400099c8:	ab08017f 	cmn	x11, x8
   1400099cc:	540000c1 	b.ne	0x1400099e4  // b.any
   1400099d0:	17fffff4 	b	0x1400099a0
   1400099d4:	2a1f03ea 	mov	w10, wzr
   1400099d8:	aa2903e8 	mvn	x8, x9
   1400099dc:	ab08017f 	cmn	x11, x8
   1400099e0:	54fffe00 	b.eq	0x1400099a0  // b.none
   1400099e4:	f10b5d3f 	cmp	x9, #0x2d7
   1400099e8:	52805aec 	mov	w12, #0x2d7                 	// #727
   1400099ec:	2a1f03e8 	mov	w8, wzr
   1400099f0:	4b0a000a 	sub	w10, w0, w10
   1400099f4:	9a8c8120 	csel	x0, x9, x12, hi	// hi = pmore
   1400099f8:	d100056b 	sub	x11, x11, #0x1
   1400099fc:	b000006c 	adrp	x12, 0x140016000
   140009a00:	9117218c 	add	x12, x12, #0x5c8
   140009a04:	eb09001f 	cmp	x0, x9
   140009a08:	54000160 	b.eq	0x140009a34  // b.none
   140009a0c:	3869698d 	ldrb	w13, [x12, x9]
   140009a10:	0b0d0108 	add	w8, w8, w13
   140009a14:	6b0a011f 	cmp	w8, w10
   140009a18:	54fffc48 	b.hi	0x1400099a0  // b.pmore
   140009a1c:	91000529 	add	x9, x9, #0x1
   140009a20:	eb09017f 	cmp	x11, x9
   140009a24:	54ffff01 	b.ne	0x140009a04  // b.any
   140009a28:	aa0b03e9 	mov	x9, x11
   140009a2c:	12000120 	and	w0, w9, #0x1
   140009a30:	d65f03c0 	ret
   140009a34:	b0000062 	adrp	x2, 0x140016000
   140009a38:	91228042 	add	x2, x2, #0x8a0
   140009a3c:	52805ae1 	mov	w1, #0x2d7                 	// #727
   140009a40:	9400025e 	bl	0x14000a3b8
   140009a44:	d4200020 	brk	#0x1
   140009a48:	b0000062 	adrp	x2, 0x140016000
   140009a4c:	91228042 	add	x2, x2, #0x8a0
   140009a50:	aa0803e0 	mov	x0, x8
   140009a54:	52800421 	mov	w1, #0x21                  	// #33
   140009a58:	94000258 	bl	0x14000a3b8
   140009a5c:	d4200020 	brk	#0x1
   140009a60:	a9402020 	ldp	x0, x8, [x1]
   140009a64:	b0000061 	adrp	x1, 0x140016000
   140009a68:	9122e021 	add	x1, x1, #0x8b8
   140009a6c:	52800162 	mov	w2, #0xb                   	// #11
   140009a70:	f9400d03 	ldr	x3, [x8, #24]
   140009a74:	d61f0060 	br	x3
   140009a78:	140000be 	b	0x140009d70
   140009a7c:	14000188 	b	0x14000a09c
   140009a80:	aa0103e0 	mov	x0, x1
   140009a84:	b0000061 	adrp	x1, 0x140016000
   140009a88:	91248821 	add	x1, x1, #0x922
   140009a8c:	52800042 	mov	w2, #0x2                   	// #2
   140009a90:	17fff60c 	b	0x1400072c0
   140009a94:	39400008 	ldrb	w8, [x0]
   140009a98:	aa0103e0 	mov	x0, x1
   140009a9c:	340000a8 	cbz	w8, 0x140009ab0
   140009aa0:	b0000061 	adrp	x1, 0x140016000
   140009aa4:	91249021 	add	x1, x1, #0x924
   140009aa8:	52800182 	mov	w2, #0xc                   	// #12
   140009aac:	17fff729 	b	0x140007750
   140009ab0:	b0000061 	adrp	x1, 0x140016000
   140009ab4:	9124c021 	add	x1, x1, #0x930
   140009ab8:	52800102 	mov	w2, #0x8                   	// #8
   140009abc:	17fff725 	b	0x140007750
   140009ac0:	aa0103e2 	mov	x2, x1
   140009ac4:	a9400408 	ldp	x8, x1, [x0]
   140009ac8:	aa0803e0 	mov	x0, x8
   140009acc:	17fff84b 	b	0x140007bf8
   140009ad0:	529ca9e9 	mov	w9, #0xe54f                	// #58703
   140009ad4:	2a0003e8 	mov	w8, w0
   140009ad8:	72ac8e89 	movk	w9, #0x6474, lsl #16
   140009adc:	52800141 	mov	w1, #0xa                   	// #10
   140009ae0:	6b09001f 	cmp	w0, w9
   140009ae4:	b0000060 	adrp	x0, 0x140016000
   140009ae8:	9124e000 	add	x0, x0, #0x938
   140009aec:	5400028d 	b.le	0x140009b3c
   140009af0:	529fff29 	mov	w9, #0xfff9                	// #65529
   140009af4:	72adffe9 	movk	w9, #0x6fff, lsl #16
   140009af8:	6b09011f 	cmp	w8, w9
   140009afc:	540003ad 	b.le	0x140009b70
   140009b00:	528000c9 	mov	w9, #0x6                   	// #6
   140009b04:	72b20009 	movk	w9, #0x9000, lsl #16
   140009b08:	0b090109 	add	w9, w8, w9
   140009b0c:	71001d3f 	cmp	w9, #0x7
   140009b10:	540005e8 	b.hi	0x140009bcc  // b.pmore
   140009b14:	b0000068 	adrp	x8, 0x140016000
   140009b18:	9127dd08 	add	x8, x8, #0x9f7
   140009b1c:	1000008a 	adr	x10, 0x140009b2c
   140009b20:	3869690b 	ldrb	w11, [x8, x9]
   140009b24:	8b0b094a 	add	x10, x10, x11, lsl #2
   140009b28:	d61f0140 	br	x10
   140009b2c:	52800141 	mov	w1, #0xa                   	// #10
   140009b30:	b0000060 	adrp	x0, 0x140016000
   140009b34:	9125cc00 	add	x0, x0, #0x973
   140009b38:	d65f03c0 	ret
   140009b3c:	7100211f 	cmp	w8, #0x8
   140009b40:	54000388 	b.hi	0x140009bb0  // b.pmore
   140009b44:	2a0803e8 	mov	w8, w8
   140009b48:	b0000069 	adrp	x9, 0x140016000
   140009b4c:	9127b929 	add	x9, x9, #0x9ee
   140009b50:	1000008a 	adr	x10, 0x140009b60
   140009b54:	3868692b 	ldrb	w11, [x9, x8]
   140009b58:	8b0b094a 	add	x10, x10, x11, lsl #2
   140009b5c:	d61f0140 	br	x10
   140009b60:	528000e1 	mov	w1, #0x7                   	// #7
   140009b64:	b0000060 	adrp	x0, 0x140016000
   140009b68:	91279c00 	add	x0, x0, #0x9e7
   140009b6c:	d65f03c0 	ret
   140009b70:	529caa09 	mov	w9, #0xe550                	// #58704
   140009b74:	72ac8e89 	movk	w9, #0x6474, lsl #16
   140009b78:	6b09011f 	cmp	w8, w9
   140009b7c:	54000560 	b.eq	0x140009c28  // b.none
   140009b80:	529caa29 	mov	w9, #0xe551                	// #58705
   140009b84:	72ac8e89 	movk	w9, #0x6474, lsl #16
   140009b88:	6b09011f 	cmp	w8, w9
   140009b8c:	54000560 	b.eq	0x140009c38  // b.none
   140009b90:	529caa49 	mov	w9, #0xe552                	// #58706
   140009b94:	72ac8e89 	movk	w9, #0x6474, lsl #16
   140009b98:	6b09011f 	cmp	w8, w9
   140009b9c:	54000441 	b.ne	0x140009c24  // b.any
   140009ba0:	52800181 	mov	w1, #0xc                   	// #12
   140009ba4:	b0000060 	adrp	x0, 0x140016000
   140009ba8:	9125f400 	add	x0, x0, #0x97d
   140009bac:	d65f03c0 	ret
   140009bb0:	52ac0009 	mov	w9, #0x60000000            	// #1610612736
   140009bb4:	6b09011f 	cmp	w8, w9
   140009bb8:	54000361 	b.ne	0x140009c24  // b.any
   140009bbc:	528000e1 	mov	w1, #0x7                   	// #7
   140009bc0:	b0000060 	adrp	x0, 0x140016000
   140009bc4:	91269000 	add	x0, x0, #0x9a4
   140009bc8:	d65f03c0 	ret
   140009bcc:	12b00009 	mov	w9, #0x7fffffff            	// #2147483647
   140009bd0:	6b09011f 	cmp	w8, w9
   140009bd4:	54000281 	b.ne	0x140009c24  // b.any
   140009bd8:	52800121 	mov	w1, #0x9                   	// #9
   140009bdc:	b0000060 	adrp	x0, 0x140016000
   140009be0:	91253800 	add	x0, x0, #0x94e
   140009be4:	d65f03c0 	ret
   140009be8:	52800181 	mov	w1, #0xc                   	// #12
   140009bec:	b0000060 	adrp	x0, 0x140016000
   140009bf0:	91259c00 	add	x0, x0, #0x967
   140009bf4:	d65f03c0 	ret
   140009bf8:	528000e1 	mov	w1, #0x7                   	// #7
   140009bfc:	b0000060 	adrp	x0, 0x140016000
   140009c00:	91258000 	add	x0, x0, #0x960
   140009c04:	d65f03c0 	ret
   140009c08:	52800121 	mov	w1, #0x9                   	// #9
   140009c0c:	b0000060 	adrp	x0, 0x140016000
   140009c10:	91255c00 	add	x0, x0, #0x957
   140009c14:	d65f03c0 	ret
   140009c18:	52800181 	mov	w1, #0xc                   	// #12
   140009c1c:	b0000060 	adrp	x0, 0x140016000
   140009c20:	91250800 	add	x0, x0, #0x942
   140009c24:	d65f03c0 	ret
   140009c28:	528001e1 	mov	w1, #0xf                   	// #15
   140009c2c:	b0000060 	adrp	x0, 0x140016000
   140009c30:	91265400 	add	x0, x0, #0x995
   140009c34:	d65f03c0 	ret
   140009c38:	52800181 	mov	w1, #0xc                   	// #12
   140009c3c:	b0000060 	adrp	x0, 0x140016000
   140009c40:	91262400 	add	x0, x0, #0x989
   140009c44:	d65f03c0 	ret
   140009c48:	528000e1 	mov	w1, #0x7                   	// #7
   140009c4c:	b0000060 	adrp	x0, 0x140016000
   140009c50:	91278000 	add	x0, x0, #0x9e0
   140009c54:	d65f03c0 	ret
   140009c58:	52800141 	mov	w1, #0xa                   	// #10
   140009c5c:	b0000060 	adrp	x0, 0x140016000
   140009c60:	91275800 	add	x0, x0, #0x9d6
   140009c64:	d65f03c0 	ret
   140009c68:	52800121 	mov	w1, #0x9                   	// #9
   140009c6c:	b0000060 	adrp	x0, 0x140016000
   140009c70:	91273400 	add	x0, x0, #0x9cd
   140009c74:	d65f03c0 	ret
   140009c78:	528000e1 	mov	w1, #0x7                   	// #7
   140009c7c:	b0000060 	adrp	x0, 0x140016000
   140009c80:	91271800 	add	x0, x0, #0x9c6
   140009c84:	d65f03c0 	ret
   140009c88:	52800101 	mov	w1, #0x8                   	// #8
   140009c8c:	b0000060 	adrp	x0, 0x140016000
   140009c90:	9126f800 	add	x0, x0, #0x9be
   140009c94:	d65f03c0 	ret
   140009c98:	528000e1 	mov	w1, #0x7                   	// #7
   140009c9c:	b0000060 	adrp	x0, 0x140016000
   140009ca0:	9126dc00 	add	x0, x0, #0x9b7
   140009ca4:	d65f03c0 	ret
   140009ca8:	528000c1 	mov	w1, #0x6                   	// #6
   140009cac:	b0000060 	adrp	x0, 0x140016000
   140009cb0:	9126c400 	add	x0, x0, #0x9b1
   140009cb4:	d65f03c0 	ret
   140009cb8:	528000c1 	mov	w1, #0x6                   	// #6
   140009cbc:	b0000060 	adrp	x0, 0x140016000
   140009cc0:	9126ac00 	add	x0, x0, #0x9ab
   140009cc4:	d65f03c0 	ret
   140009cc8:	f81f0ffe 	str	x30, [sp, #-16]!
   140009ccc:	f9400008 	ldr	x8, [x0]
   140009cd0:	aa0103e0 	mov	x0, x1
   140009cd4:	f9400109 	ldr	x9, [x8]
   140009cd8:	b4000189 	cbz	x9, 0x140009d08
   140009cdc:	91002108 	add	x8, x8, #0x8
   140009ce0:	b0000061 	adrp	x1, 0x140016000
   140009ce4:	9127fc21 	add	x1, x1, #0x9ff
   140009ce8:	b0000064 	adrp	x4, 0x140016000
   140009cec:	9128c084 	add	x4, x4, #0xa30
   140009cf0:	910023e3 	add	x3, sp, #0x8
   140009cf4:	52800082 	mov	w2, #0x4                   	// #4
   140009cf8:	f90007e8 	str	x8, [sp, #8]
   140009cfc:	97fff788 	bl	0x140007b1c
   140009d00:	f84107fe 	ldr	x30, [sp], #16
   140009d04:	d65f03c0 	ret
   140009d08:	b0000061 	adrp	x1, 0x140016000
   140009d0c:	9128a021 	add	x1, x1, #0xa28
   140009d10:	52800082 	mov	w2, #0x4                   	// #4
   140009d14:	f84107fe 	ldr	x30, [sp], #16
   140009d18:	17fff68e 	b	0x140007750
   140009d1c:	f81f0ffe 	str	x30, [sp, #-16]!
   140009d20:	f9400008 	ldr	x8, [x0]
   140009d24:	aa0103e0 	mov	x0, x1
   140009d28:	b9402109 	ldr	w9, [x8, #32]
   140009d2c:	7100093f 	cmp	w9, #0x2
   140009d30:	540000c1 	b.ne	0x140009d48  // b.any
   140009d34:	b0000061 	adrp	x1, 0x140016000
   140009d38:	9128a021 	add	x1, x1, #0xa28
   140009d3c:	52800082 	mov	w2, #0x4                   	// #4
   140009d40:	f84107fe 	ldr	x30, [sp], #16
   140009d44:	17fff683 	b	0x140007750
   140009d48:	b0000061 	adrp	x1, 0x140016000
   140009d4c:	9127fc21 	add	x1, x1, #0x9ff
   140009d50:	b0000064 	adrp	x4, 0x140016000
   140009d54:	91282084 	add	x4, x4, #0xa08
   140009d58:	910023e3 	add	x3, sp, #0x8
   140009d5c:	52800082 	mov	w2, #0x4                   	// #4
   140009d60:	f90007e8 	str	x8, [sp, #8]
   140009d64:	97fff76e 	bl	0x140007b1c
   140009d68:	f84107fe 	ldr	x30, [sp], #16
   140009d6c:	d65f03c0 	ret
   140009d70:	f1003c5f 	cmp	x2, #0xf
   140009d74:	540002e9 	b.ls	0x140009dd0  // b.plast
   140009d78:	4b0003e8 	neg	w8, w0
   140009d7c:	f240090a 	ands	x10, x8, #0x7
   140009d80:	8b0a0008 	add	x8, x0, x10
   140009d84:	540006e0 	b.eq	0x140009e60  // b.none
   140009d88:	8b000149 	add	x9, x10, x0
   140009d8c:	9100040b 	add	x11, x0, #0x1
   140009d90:	eb0b013f 	cmp	x9, x11
   140009d94:	aa0003eb 	mov	x11, x0
   140009d98:	9a808529 	csinc	x9, x9, x0, hi	// hi = pmore
   140009d9c:	aa0103ec 	mov	x12, x1
   140009da0:	cb000129 	sub	x9, x9, x0
   140009da4:	f100213f 	cmp	x9, #0x8
   140009da8:	54000543 	b.cc	0x140009e50  // b.lo, b.ul, b.last
   140009dac:	aa0003eb 	mov	x11, x0
   140009db0:	aa0103ec 	mov	x12, x1
   140009db4:	cb01000d 	sub	x13, x0, x1
   140009db8:	f10081bf 	cmp	x13, #0x20
   140009dbc:	540004a3 	b.cc	0x140009e50  // b.lo, b.ul, b.last
   140009dc0:	f100813f 	cmp	x9, #0x20
   140009dc4:	540000c2 	b.cs	0x140009ddc  // b.hs, b.nlast
   140009dc8:	aa1f03ed 	mov	x13, xzr
   140009dcc:	14000012 	b	0x140009e14
   140009dd0:	aa0003e9 	mov	x9, x0
   140009dd4:	b5000fe2 	cbnz	x2, 0x140009fd0
   140009dd8:	140000b0 	b	0x14000a098
   140009ddc:	927be92d 	and	x13, x9, #0xffffffffffffffe0
   140009de0:	9100402b 	add	x11, x1, #0x10
   140009de4:	9100400c 	add	x12, x0, #0x10
   140009de8:	aa0d03ee 	mov	x14, x13
   140009dec:	ad7f8560 	ldp	q0, q1, [x11, #-16]
   140009df0:	9100816b 	add	x11, x11, #0x20
   140009df4:	f10081ce 	subs	x14, x14, #0x20
   140009df8:	ad3f8580 	stp	q0, q1, [x12, #-16]
   140009dfc:	9100818c 	add	x12, x12, #0x20
   140009e00:	54ffff61 	b.ne	0x140009dec  // b.any
   140009e04:	eb0d013f 	cmp	x9, x13
   140009e08:	540002c0 	b.eq	0x140009e60  // b.none
   140009e0c:	f27d053f 	tst	x9, #0x18
   140009e10:	540001c0 	b.eq	0x140009e48  // b.none
   140009e14:	927df12e 	and	x14, x9, #0xfffffffffffffff8
   140009e18:	8b0d002f 	add	x15, x1, x13
   140009e1c:	8b0e000b 	add	x11, x0, x14
   140009e20:	8b0e002c 	add	x12, x1, x14
   140009e24:	8b0d0010 	add	x16, x0, x13
   140009e28:	cb0e01ad 	sub	x13, x13, x14
   140009e2c:	fc4085e0 	ldr	d0, [x15], #8
   140009e30:	b10021ad 	adds	x13, x13, #0x8
   140009e34:	fc008600 	str	d0, [x16], #8
   140009e38:	54ffffa1 	b.ne	0x140009e2c  // b.any
   140009e3c:	eb0e013f 	cmp	x9, x14
   140009e40:	54000081 	b.ne	0x140009e50  // b.any
   140009e44:	14000007 	b	0x140009e60
   140009e48:	8b0d002c 	add	x12, x1, x13
   140009e4c:	8b0d000b 	add	x11, x0, x13
   140009e50:	38401589 	ldrb	w9, [x12], #1
   140009e54:	38001569 	strb	w9, [x11], #1
   140009e58:	eb08017f 	cmp	x11, x8
   140009e5c:	54ffffa3 	b.cc	0x140009e50  // b.lo, b.ul, b.last
   140009e60:	cb0a004b 	sub	x11, x2, x10
   140009e64:	8b0a002d 	add	x13, x1, x10
   140009e68:	927df16c 	and	x12, x11, #0xfffffffffffffff8
   140009e6c:	f24009bf 	tst	x13, #0x7
   140009e70:	8b0c0109 	add	x9, x8, x12
   140009e74:	54000200 	b.eq	0x140009eb4  // b.none
   140009e78:	f100059f 	cmp	x12, #0x1
   140009e7c:	54000a4b 	b.lt	0x140009fc4  // b.tstop
   140009e80:	8b00018f 	add	x15, x12, x0
   140009e84:	8b00014e 	add	x14, x10, x0
   140009e88:	8b0a01ef 	add	x15, x15, x10
   140009e8c:	910021d0 	add	x16, x14, #0x8
   140009e90:	eb1001ff 	cmp	x15, x16
   140009e94:	9a9081ef 	csel	x15, x15, x16, hi	// hi = pmore
   140009e98:	aa2003f0 	mvn	x16, x0
   140009e9c:	8b1001ef 	add	x15, x15, x16
   140009ea0:	cb0a01ef 	sub	x15, x15, x10
   140009ea4:	f100a1ff 	cmp	x15, #0x28
   140009ea8:	54000242 	b.cs	0x140009ef0  // b.hs, b.nlast
   140009eac:	aa0d03ee 	mov	x14, x13
   140009eb0:	14000026 	b	0x140009f48
   140009eb4:	f100059f 	cmp	x12, #0x1
   140009eb8:	5400086b 	b.lt	0x140009fc4  // b.tstop
   140009ebc:	8b00018f 	add	x15, x12, x0
   140009ec0:	8b00014e 	add	x14, x10, x0
   140009ec4:	8b0a01ef 	add	x15, x15, x10
   140009ec8:	910021d0 	add	x16, x14, #0x8
   140009ecc:	eb1001ff 	cmp	x15, x16
   140009ed0:	9a9081ef 	csel	x15, x15, x16, hi	// hi = pmore
   140009ed4:	aa2003f0 	mvn	x16, x0
   140009ed8:	8b1001ef 	add	x15, x15, x16
   140009edc:	cb0a01ef 	sub	x15, x15, x10
   140009ee0:	f100a1ff 	cmp	x15, #0x28
   140009ee4:	540003c2 	b.cs	0x140009f5c  // b.hs, b.nlast
   140009ee8:	aa0d03ee 	mov	x14, x13
   140009eec:	14000032 	b	0x140009fb4
   140009ef0:	cb0d01d0 	sub	x16, x14, x13
   140009ef4:	aa0d03ee 	mov	x14, x13
   140009ef8:	f100821f 	cmp	x16, #0x20
   140009efc:	54000263 	b.cc	0x140009f48  // b.lo, b.ul, b.last
   140009f00:	d343fdee 	lsr	x14, x15, #3
   140009f04:	b27c0151 	orr	x17, x10, #0x10
   140009f08:	910005cf 	add	x15, x14, #0x1
   140009f0c:	8b11002a 	add	x10, x1, x17
   140009f10:	927eedf0 	and	x16, x15, #0x3ffffffffffffffc
   140009f14:	8b110011 	add	x17, x0, x17
   140009f18:	d37df20e 	lsl	x14, x16, #3
   140009f1c:	aa1003e1 	mov	x1, x16
   140009f20:	8b0e0108 	add	x8, x8, x14
   140009f24:	8b0e01ae 	add	x14, x13, x14
   140009f28:	ad7f8540 	ldp	q0, q1, [x10, #-16]
   140009f2c:	9100814a 	add	x10, x10, #0x20
   140009f30:	f1001021 	subs	x1, x1, #0x4
   140009f34:	ad3f8620 	stp	q0, q1, [x17, #-16]
   140009f38:	91008231 	add	x17, x17, #0x20
   140009f3c:	54ffff61 	b.ne	0x140009f28  // b.any
   140009f40:	eb1001ff 	cmp	x15, x16
   140009f44:	54000400 	b.eq	0x140009fc4  // b.none
   140009f48:	f84085ca 	ldr	x10, [x14], #8
   140009f4c:	f800850a 	str	x10, [x8], #8
   140009f50:	eb09011f 	cmp	x8, x9
   140009f54:	54ffffa3 	b.cc	0x140009f48  // b.lo, b.ul, b.last
   140009f58:	1400001b 	b	0x140009fc4
   140009f5c:	cb0d01d0 	sub	x16, x14, x13
   140009f60:	aa0d03ee 	mov	x14, x13
   140009f64:	f100821f 	cmp	x16, #0x20
   140009f68:	54000263 	b.cc	0x140009fb4  // b.lo, b.ul, b.last
   140009f6c:	d343fdee 	lsr	x14, x15, #3
   140009f70:	b27c0151 	orr	x17, x10, #0x10
   140009f74:	910005cf 	add	x15, x14, #0x1
   140009f78:	8b11002a 	add	x10, x1, x17
   140009f7c:	927eedf0 	and	x16, x15, #0x3ffffffffffffffc
   140009f80:	8b110011 	add	x17, x0, x17
   140009f84:	d37df20e 	lsl	x14, x16, #3
   140009f88:	aa1003e1 	mov	x1, x16
   140009f8c:	8b0e0108 	add	x8, x8, x14
   140009f90:	8b0e01ae 	add	x14, x13, x14
   140009f94:	ad7f8540 	ldp	q0, q1, [x10, #-16]
   140009f98:	9100814a 	add	x10, x10, #0x20
   140009f9c:	f1001021 	subs	x1, x1, #0x4
   140009fa0:	ad3f8620 	stp	q0, q1, [x17, #-16]
   140009fa4:	91008231 	add	x17, x17, #0x20
   140009fa8:	54ffff61 	b.ne	0x140009f94  // b.any
   140009fac:	eb1001ff 	cmp	x15, x16
   140009fb0:	540000a0 	b.eq	0x140009fc4  // b.none
   140009fb4:	f84085ca 	ldr	x10, [x14], #8
   140009fb8:	f800850a 	str	x10, [x8], #8
   140009fbc:	eb09011f 	cmp	x8, x9
   140009fc0:	54ffffa3 	b.cc	0x140009fb4  // b.lo, b.ul, b.last
   140009fc4:	8b0c01a1 	add	x1, x13, x12
   140009fc8:	92400962 	and	x2, x11, #0x7
   140009fcc:	b4000662 	cbz	x2, 0x14000a098
   140009fd0:	8b090048 	add	x8, x2, x9
   140009fd4:	9100052a 	add	x10, x9, #0x1
   140009fd8:	eb0a011f 	cmp	x8, x10
   140009fdc:	9a898508 	csinc	x8, x8, x9, hi	// hi = pmore
   140009fe0:	cb090108 	sub	x8, x8, x9
   140009fe4:	f100211f 	cmp	x8, #0x8
   140009fe8:	54000103 	b.cc	0x14000a008  // b.lo, b.ul, b.last
   140009fec:	cb01012a 	sub	x10, x9, x1
   140009ff0:	f100815f 	cmp	x10, #0x20
   140009ff4:	540000a3 	b.cc	0x14000a008  // b.lo, b.ul, b.last
   140009ff8:	f100811f 	cmp	x8, #0x20
   140009ffc:	540000a2 	b.cs	0x14000a010  // b.hs, b.nlast
   14000a000:	aa1f03eb 	mov	x11, xzr
   14000a004:	14000011 	b	0x14000a048
   14000a008:	aa0903ea 	mov	x10, x9
   14000a00c:	1400001e 	b	0x14000a084
   14000a010:	927be90b 	and	x11, x8, #0xffffffffffffffe0
   14000a014:	9100402a 	add	x10, x1, #0x10
   14000a018:	9100412c 	add	x12, x9, #0x10
   14000a01c:	aa0b03ed 	mov	x13, x11
   14000a020:	ad7f8540 	ldp	q0, q1, [x10, #-16]
   14000a024:	9100814a 	add	x10, x10, #0x20
   14000a028:	f10081ad 	subs	x13, x13, #0x20
   14000a02c:	ad3f8580 	stp	q0, q1, [x12, #-16]
   14000a030:	9100818c 	add	x12, x12, #0x20
   14000a034:	54ffff61 	b.ne	0x14000a020  // b.any
   14000a038:	eb0b011f 	cmp	x8, x11
   14000a03c:	540002e0 	b.eq	0x14000a098  // b.none
   14000a040:	f27d051f 	tst	x8, #0x18
   14000a044:	540001c0 	b.eq	0x14000a07c  // b.none
   14000a048:	927df10c 	and	x12, x8, #0xfffffffffffffff8
   14000a04c:	8b0b002d 	add	x13, x1, x11
   14000a050:	8b0c012a 	add	x10, x9, x12
   14000a054:	8b0c0021 	add	x1, x1, x12
   14000a058:	8b0b012e 	add	x14, x9, x11
   14000a05c:	cb0c016b 	sub	x11, x11, x12
   14000a060:	fc4085a0 	ldr	d0, [x13], #8
   14000a064:	b100216b 	adds	x11, x11, #0x8
   14000a068:	fc0085c0 	str	d0, [x14], #8
   14000a06c:	54ffffa1 	b.ne	0x14000a060  // b.any
   14000a070:	eb0c011f 	cmp	x8, x12
   14000a074:	54000081 	b.ne	0x14000a084  // b.any
   14000a078:	14000008 	b	0x14000a098
   14000a07c:	8b0b0021 	add	x1, x1, x11
   14000a080:	8b0b012a 	add	x10, x9, x11
   14000a084:	8b020128 	add	x8, x9, x2
   14000a088:	38401429 	ldrb	w9, [x1], #1
   14000a08c:	38001549 	strb	w9, [x10], #1
   14000a090:	eb08015f 	cmp	x10, x8
   14000a094:	54ffffa3 	b.cc	0x14000a088  // b.lo, b.ul, b.last
   14000a098:	d65f03c0 	ret
   14000a09c:	f1003c5f 	cmp	x2, #0xf
   14000a0a0:	54000229 	b.ls	0x14000a0e4  // b.plast
   14000a0a4:	4b0003e8 	neg	w8, w0
   14000a0a8:	f240090a 	ands	x10, x8, #0x7
   14000a0ac:	8b0a0008 	add	x8, x0, x10
   14000a0b0:	54000560 	b.eq	0x14000a15c  // b.none
   14000a0b4:	8b000149 	add	x9, x10, x0
   14000a0b8:	9100040b 	add	x11, x0, #0x1
   14000a0bc:	eb0b013f 	cmp	x9, x11
   14000a0c0:	aa0003eb 	mov	x11, x0
   14000a0c4:	9a808529 	csinc	x9, x9, x0, hi	// hi = pmore
   14000a0c8:	cb000129 	sub	x9, x9, x0
   14000a0cc:	f100213f 	cmp	x9, #0x8
   14000a0d0:	54000403 	b.cc	0x14000a150  // b.lo, b.ul, b.last
   14000a0d4:	f100813f 	cmp	x9, #0x20
   14000a0d8:	540000c2 	b.cs	0x14000a0f0  // b.hs, b.nlast
   14000a0dc:	aa1f03ec 	mov	x12, xzr
   14000a0e0:	14000010 	b	0x14000a120
   14000a0e4:	aa0003e9 	mov	x9, x0
   14000a0e8:	b5000862 	cbnz	x2, 0x14000a1f4
   14000a0ec:	1400006a 	b	0x14000a294
   14000a0f0:	927be92c 	and	x12, x9, #0xffffffffffffffe0
   14000a0f4:	9100400b 	add	x11, x0, #0x10
   14000a0f8:	aa0c03ed 	mov	x13, x12
   14000a0fc:	4e010c20 	dup	v0.16b, w1
   14000a100:	ad3f8160 	stp	q0, q0, [x11, #-16]
   14000a104:	9100816b 	add	x11, x11, #0x20
   14000a108:	f10081ad 	subs	x13, x13, #0x20
   14000a10c:	54ffffa1 	b.ne	0x14000a100  // b.any
   14000a110:	eb0c013f 	cmp	x9, x12
   14000a114:	54000240 	b.eq	0x14000a15c  // b.none
   14000a118:	f27d053f 	tst	x9, #0x18
   14000a11c:	54000180 	b.eq	0x14000a14c  // b.none
   14000a120:	927df12d 	and	x13, x9, #0xfffffffffffffff8
   14000a124:	0e010c20 	dup	v0.8b, w1
   14000a128:	8b0d000b 	add	x11, x0, x13
   14000a12c:	8b0c000e 	add	x14, x0, x12
   14000a130:	cb0d018c 	sub	x12, x12, x13
   14000a134:	b100218c 	adds	x12, x12, #0x8
   14000a138:	fc0085c0 	str	d0, [x14], #8
   14000a13c:	54ffffc1 	b.ne	0x14000a134  // b.any
   14000a140:	eb0d013f 	cmp	x9, x13
   14000a144:	54000061 	b.ne	0x14000a150  // b.any
   14000a148:	14000005 	b	0x14000a15c
   14000a14c:	8b0c000b 	add	x11, x0, x12
   14000a150:	38001561 	strb	w1, [x11], #1
   14000a154:	eb08017f 	cmp	x11, x8
   14000a158:	54ffffc3 	b.cc	0x14000a150  // b.lo, b.ul, b.last
   14000a15c:	cb0a004b 	sub	x11, x2, x10
   14000a160:	927df16c 	and	x12, x11, #0xfffffffffffffff8
   14000a164:	8b0c0109 	add	x9, x8, x12
   14000a168:	f100059f 	cmp	x12, #0x1
   14000a16c:	5400040b 	b.lt	0x14000a1ec  // b.tstop
   14000a170:	12001c2d 	and	w13, w1, #0xff
   14000a174:	3200c3ef 	mov	w15, #0x1010101             	// #16843009
   14000a178:	8b000190 	add	x16, x12, x0
   14000a17c:	8b00014e 	add	x14, x10, x0
   14000a180:	1b0f7dac 	mul	w12, w13, w15
   14000a184:	8b0a020d 	add	x13, x16, x10
   14000a188:	910021cf 	add	x15, x14, #0x8
   14000a18c:	eb0f01bf 	cmp	x13, x15
   14000a190:	9a8f81ad 	csel	x13, x13, x15, hi	// hi = pmore
   14000a194:	aa2003ef 	mvn	x15, x0
   14000a198:	8b0f01ad 	add	x13, x13, x15
   14000a19c:	b3607d8c 	bfi	x12, x12, #32, #32
   14000a1a0:	cb0a01aa 	sub	x10, x13, x10
   14000a1a4:	f100615f 	cmp	x10, #0x18
   14000a1a8:	540001c3 	b.cc	0x14000a1e0  // b.lo, b.ul, b.last
   14000a1ac:	d343fd4a 	lsr	x10, x10, #3
   14000a1b0:	910041ce 	add	x14, x14, #0x10
   14000a1b4:	9100054a 	add	x10, x10, #0x1
   14000a1b8:	4e080d80 	dup	v0.2d, x12
   14000a1bc:	927eed4d 	and	x13, x10, #0x3ffffffffffffffc
   14000a1c0:	aa0d03ef 	mov	x15, x13
   14000a1c4:	8b0d0d08 	add	x8, x8, x13, lsl #3
   14000a1c8:	ad3f81c0 	stp	q0, q0, [x14, #-16]
   14000a1cc:	910081ce 	add	x14, x14, #0x20
   14000a1d0:	f10011ef 	subs	x15, x15, #0x4
   14000a1d4:	54ffffa1 	b.ne	0x14000a1c8  // b.any
   14000a1d8:	eb0d015f 	cmp	x10, x13
   14000a1dc:	54000080 	b.eq	0x14000a1ec  // b.none
   14000a1e0:	f800850c 	str	x12, [x8], #8
   14000a1e4:	eb09011f 	cmp	x8, x9
   14000a1e8:	54ffffc3 	b.cc	0x14000a1e0  // b.lo, b.ul, b.last
   14000a1ec:	92400962 	and	x2, x11, #0x7
   14000a1f0:	b4000522 	cbz	x2, 0x14000a294
   14000a1f4:	8b090048 	add	x8, x2, x9
   14000a1f8:	9100052a 	add	x10, x9, #0x1
   14000a1fc:	eb0a011f 	cmp	x8, x10
   14000a200:	aa0903ea 	mov	x10, x9
   14000a204:	9a898508 	csinc	x8, x8, x9, hi	// hi = pmore
   14000a208:	cb090108 	sub	x8, x8, x9
   14000a20c:	f100211f 	cmp	x8, #0x8
   14000a210:	540003a3 	b.cc	0x14000a284  // b.lo, b.ul, b.last
   14000a214:	f100811f 	cmp	x8, #0x20
   14000a218:	54000062 	b.cs	0x14000a224  // b.hs, b.nlast
   14000a21c:	aa1f03eb 	mov	x11, xzr
   14000a220:	1400000d 	b	0x14000a254
   14000a224:	927be90b 	and	x11, x8, #0xffffffffffffffe0
   14000a228:	9100412a 	add	x10, x9, #0x10
   14000a22c:	aa0b03ec 	mov	x12, x11
   14000a230:	4e010c20 	dup	v0.16b, w1
   14000a234:	ad3f8140 	stp	q0, q0, [x10, #-16]
   14000a238:	9100814a 	add	x10, x10, #0x20
   14000a23c:	f100818c 	subs	x12, x12, #0x20
   14000a240:	54ffffa1 	b.ne	0x14000a234  // b.any
   14000a244:	eb0b011f 	cmp	x8, x11
   14000a248:	54000260 	b.eq	0x14000a294  // b.none
   14000a24c:	f27d051f 	tst	x8, #0x18
   14000a250:	54000180 	b.eq	0x14000a280  // b.none
   14000a254:	927df10c 	and	x12, x8, #0xfffffffffffffff8
   14000a258:	0e010c20 	dup	v0.8b, w1
   14000a25c:	8b0c012a 	add	x10, x9, x12
   14000a260:	8b0b012d 	add	x13, x9, x11
   14000a264:	cb0c016b 	sub	x11, x11, x12
   14000a268:	b100216b 	adds	x11, x11, #0x8
   14000a26c:	fc0085a0 	str	d0, [x13], #8
   14000a270:	54ffffc1 	b.ne	0x14000a268  // b.any
   14000a274:	eb0c011f 	cmp	x8, x12
   14000a278:	54000061 	b.ne	0x14000a284  // b.any
   14000a27c:	14000006 	b	0x14000a294
   14000a280:	8b0b012a 	add	x10, x9, x11
   14000a284:	8b020128 	add	x8, x9, x2
   14000a288:	38001541 	strb	w1, [x10], #1
   14000a28c:	eb08015f 	cmp	x10, x8
   14000a290:	54ffffc3 	b.cc	0x14000a288  // b.lo, b.ul, b.last
   14000a294:	d65f03c0 	ret
   14000a298:	d10103ff 	sub	sp, sp, #0x40
   14000a29c:	ad400460 	ldp	q0, q1, [x3]
   14000a2a0:	a9000be1 	stp	x1, x2, [sp]
   14000a2a4:	b0000002 	adrp	x2, 0x14000b000
   14000a2a8:	912ca042 	add	x2, x2, #0xb28
   14000a2ac:	aa0403e6 	mov	x6, x4
   14000a2b0:	910003e1 	mov	x1, sp
   14000a2b4:	910043e5 	add	x5, sp, #0x10
   14000a2b8:	aa0203e4 	mov	x4, x2
   14000a2bc:	3dc00862 	ldr	q2, [x3, #32]
   14000a2c0:	910023e3 	add	x3, sp, #0x8
   14000a2c4:	ad0087e0 	stp	q0, q1, [sp, #16]
   14000a2c8:	3d800fe2 	str	q2, [sp, #48]
   14000a2cc:	9400005f 	bl	0x14000a448
   14000a2d0:	d4200020 	brk	#0x1
   14000a2d4:	d10103ff 	sub	sp, sp, #0x40
   14000a2d8:	ad400460 	ldp	q0, q1, [x3]
   14000a2dc:	a9000be1 	stp	x1, x2, [sp]
   14000a2e0:	d0000042 	adrp	x2, 0x140014000
   14000a2e4:	91304042 	add	x2, x2, #0xc10
   14000a2e8:	aa0403e6 	mov	x6, x4
   14000a2ec:	910003e1 	mov	x1, sp
   14000a2f0:	910043e5 	add	x5, sp, #0x10
   14000a2f4:	aa0203e4 	mov	x4, x2
   14000a2f8:	3dc00862 	ldr	q2, [x3, #32]
   14000a2fc:	910023e3 	add	x3, sp, #0x8
   14000a300:	ad0087e0 	stp	q0, q1, [sp, #16]
   14000a304:	3d800fe2 	str	q2, [sp, #48]
   14000a308:	94000050 	bl	0x14000a448
   14000a30c:	d4200020 	brk	#0x1
   14000a310:	d10103ff 	sub	sp, sp, #0x40
   14000a314:	ad400460 	ldp	q0, q1, [x3]
   14000a318:	a9000be1 	stp	x1, x2, [sp]
   14000a31c:	d0000042 	adrp	x2, 0x140014000
   14000a320:	9130c042 	add	x2, x2, #0xc30
   14000a324:	aa0403e6 	mov	x6, x4
   14000a328:	910003e1 	mov	x1, sp
   14000a32c:	910043e5 	add	x5, sp, #0x10
   14000a330:	aa0203e4 	mov	x4, x2
   14000a334:	3dc00862 	ldr	q2, [x3, #32]
   14000a338:	910023e3 	add	x3, sp, #0x8
   14000a33c:	ad0087e0 	stp	q0, q1, [sp, #16]
   14000a340:	3d800fe2 	str	q2, [sp, #48]
   14000a344:	94000041 	bl	0x14000a448
   14000a348:	d4200020 	brk	#0x1
   14000a34c:	97fff023 	bl	0x1400063d8
   14000a350:	d4200020 	brk	#0x1
   14000a354:	d100c3ff 	sub	sp, sp, #0x30
   14000a358:	f0000048 	adrp	x8, 0x140015000
   14000a35c:	9121c108 	add	x8, x8, #0x870
   14000a360:	f0000049 	adrp	x9, 0x140015000
   14000a364:	9125c129 	add	x9, x9, #0x970
   14000a368:	a90187e0 	stp	x0, x1, [sp, #24]
   14000a36c:	910023e0 	add	x0, sp, #0x8
   14000a370:	a900a7e8 	stp	x8, x9, [sp, #8]
   14000a374:	52800028 	mov	w8, #0x1                   	// #1
   14000a378:	3900a3e8 	strb	w8, [sp, #40]
   14000a37c:	97ffe0cc 	bl	0x1400026ac
   14000a380:	d4200020 	brk	#0x1
   14000a384:	d10103ff 	sub	sp, sp, #0x40
   14000a388:	9100c3e8 	add	x8, sp, #0x30
   14000a38c:	52800029 	mov	w9, #0x1                   	// #1
   14000a390:	a90307e0 	stp	x0, x1, [sp, #48]
   14000a394:	910003e0 	mov	x0, sp
   14000a398:	aa0203e1 	mov	x1, x2
   14000a39c:	f90003ff 	str	xzr, [sp]
   14000a3a0:	a90127e8 	stp	x8, x9, [sp, #16]
   14000a3a4:	f0000048 	adrp	x8, 0x140015000
   14000a3a8:	9121c108 	add	x8, x8, #0x870
   14000a3ac:	a9027fe8 	stp	x8, xzr, [sp, #32]
   14000a3b0:	97ffffe9 	bl	0x14000a354
   14000a3b4:	d4200020 	brk	#0x1
   14000a3b8:	d10183ff 	sub	sp, sp, #0x60
   14000a3bc:	910023e8 	add	x8, sp, #0x8
   14000a3c0:	f0ffffe9 	adrp	x9, 0x140009000
   14000a3c4:	911cd129 	add	x9, x9, #0x734
   14000a3c8:	910003ea 	mov	x10, sp
   14000a3cc:	a90007e0 	stp	x0, x1, [sp]
   14000a3d0:	910043e0 	add	x0, sp, #0x10
   14000a3d4:	aa0203e1 	mov	x1, x2
   14000a3d8:	f9000bff 	str	xzr, [sp, #16]
   14000a3dc:	a90427e8 	stp	x8, x9, [sp, #64]
   14000a3e0:	f0000048 	adrp	x8, 0x140015000
   14000a3e4:	9123a108 	add	x8, x8, #0x8e8
   14000a3e8:	a90527ea 	stp	x10, x9, [sp, #80]
   14000a3ec:	52800049 	mov	w9, #0x2                   	// #2
   14000a3f0:	910103ea 	add	x10, sp, #0x40
   14000a3f4:	a90227e8 	stp	x8, x9, [sp, #32]
   14000a3f8:	a90327ea 	stp	x10, x9, [sp, #48]
   14000a3fc:	97ffffd6 	bl	0x14000a354
   14000a400:	d4200020 	brk	#0x1
   14000a404:	d10103ff 	sub	sp, sp, #0x40
   14000a408:	ad400440 	ldp	q0, q1, [x2]
   14000a40c:	a90007e0 	stp	x0, x1, [sp]
   14000a410:	f0000046 	adrp	x6, 0x140015000
   14000a414:	913140c6 	add	x6, x6, #0xc50
   14000a418:	910003e1 	mov	x1, sp
   14000a41c:	910023e3 	add	x3, sp, #0x8
   14000a420:	910043e5 	add	x5, sp, #0x10
   14000a424:	2a1f03e0 	mov	w0, wzr
   14000a428:	3dc00842 	ldr	q2, [x2, #32]
   14000a42c:	f0000042 	adrp	x2, 0x140015000
   14000a430:	91268042 	add	x2, x2, #0x9a0
   14000a434:	ad0087e0 	stp	q0, q1, [sp, #16]
   14000a438:	aa0203e4 	mov	x4, x2
   14000a43c:	3d800fe2 	str	q2, [sp, #48]
   14000a440:	94000002 	bl	0x14000a448
   14000a444:	d4200020 	brk	#0x1
   14000a448:	72001c08 	ands	w8, w0, #0xff
   14000a44c:	a9b30be1 	stp	x1, x2, [sp, #-208]!
   14000a450:	a90113e3 	stp	x3, x4, [sp, #16]
   14000a454:	54000140 	b.eq	0x14000a47c  // b.none
   14000a458:	7100051f 	cmp	w8, #0x1
   14000a45c:	54000561 	b.ne	0x14000a508  // b.any
   14000a460:	52800048 	mov	w8, #0x2                   	// #2
   14000a464:	f0000049 	adrp	x9, 0x140015000
   14000a468:	91271d29 	add	x9, x9, #0x9c7
   14000a46c:	a90223e9 	stp	x9, x8, [sp, #32]
   14000a470:	f94008a9 	ldr	x9, [x5, #16]
   14000a474:	b5000109 	cbnz	x9, 0x14000a494
   14000a478:	1400002a 	b	0x14000a520
   14000a47c:	52800048 	mov	w8, #0x2                   	// #2
   14000a480:	f0000049 	adrp	x9, 0x140015000
   14000a484:	91272529 	add	x9, x9, #0x9c9
   14000a488:	a90223e9 	stp	x9, x8, [sp, #32]
   14000a48c:	f94008a9 	ldr	x9, [x5, #16]
   14000a490:	b4000489 	cbz	x9, 0x14000a520
   14000a494:	910083e8 	add	x8, sp, #0x20
   14000a498:	f0ffffe9 	adrp	x9, 0x140009000
   14000a49c:	9123e129 	add	x9, x9, #0x8f8
   14000a4a0:	f0ffffeb 	adrp	x11, 0x140009000
   14000a4a4:	9122916b 	add	x11, x11, #0x8a4
   14000a4a8:	910003ea 	mov	x10, sp
   14000a4ac:	ad4004a0 	ldp	q0, q1, [x5]
   14000a4b0:	a90627e8 	stp	x8, x9, [sp, #96]
   14000a4b4:	910043e8 	add	x8, sp, #0x10
   14000a4b8:	90ffffe9 	adrp	x9, 0x140006000
   14000a4bc:	912e2129 	add	x9, x9, #0xb88
   14000a4c0:	a9072fea 	stp	x10, x11, [sp, #112]
   14000a4c4:	f000004a 	adrp	x10, 0x140015000
   14000a4c8:	9128214a 	add	x10, x10, #0xa08
   14000a4cc:	a9082fe8 	stp	x8, x11, [sp, #128]
   14000a4d0:	9100c3e8 	add	x8, sp, #0x30
   14000a4d4:	f90053ff 	str	xzr, [sp, #160]
   14000a4d8:	3dc008a2 	ldr	q2, [x5, #32]
   14000a4dc:	ad0187e0 	stp	q0, q1, [sp, #48]
   14000a4e0:	a90927e8 	stp	x8, x9, [sp, #144]
   14000a4e4:	52800088 	mov	w8, #0x4                   	// #4
   14000a4e8:	910183e9 	add	x9, sp, #0x60
   14000a4ec:	3d8017e2 	str	q2, [sp, #80]
   14000a4f0:	a90b23ea 	stp	x10, x8, [sp, #176]
   14000a4f4:	a90c23e9 	stp	x9, x8, [sp, #192]
   14000a4f8:	910283e0 	add	x0, sp, #0xa0
   14000a4fc:	aa0603e1 	mov	x1, x6
   14000a500:	97ffff95 	bl	0x14000a354
   14000a504:	d4200020 	brk	#0x1
   14000a508:	528000e8 	mov	w8, #0x7                   	// #7
   14000a50c:	f0000049 	adrp	x9, 0x140015000
   14000a510:	91270129 	add	x9, x9, #0x9c0
   14000a514:	a90223e9 	stp	x9, x8, [sp, #32]
   14000a518:	f94008a9 	ldr	x9, [x5, #16]
   14000a51c:	b5fffbc9 	cbnz	x9, 0x14000a494
   14000a520:	910083e8 	add	x8, sp, #0x20
   14000a524:	f0ffffe9 	adrp	x9, 0x140009000
   14000a528:	9123e129 	add	x9, x9, #0x8f8
   14000a52c:	f0ffffeb 	adrp	x11, 0x140009000
   14000a530:	9122916b 	add	x11, x11, #0x8a4
   14000a534:	910003ea 	mov	x10, sp
   14000a538:	f90053ff 	str	xzr, [sp, #160]
   14000a53c:	a90627e8 	stp	x8, x9, [sp, #96]
   14000a540:	910043e8 	add	x8, sp, #0x10
   14000a544:	f0000049 	adrp	x9, 0x140015000
   14000a548:	91294129 	add	x9, x9, #0xa50
   14000a54c:	a9072fea 	stp	x10, x11, [sp, #112]
   14000a550:	910183ea 	add	x10, sp, #0x60
   14000a554:	a9082fe8 	stp	x8, x11, [sp, #128]
   14000a558:	52800088 	mov	w8, #0x4                   	// #4
   14000a55c:	a90b23e9 	stp	x9, x8, [sp, #176]
   14000a560:	52800069 	mov	w9, #0x3                   	// #3
   14000a564:	a90c27ea 	stp	x10, x9, [sp, #192]
   14000a568:	910283e0 	add	x0, sp, #0xa0
   14000a56c:	aa0603e1 	mov	x1, x6
   14000a570:	97ffff79 	bl	0x14000a354
   14000a574:	d4200020 	brk	#0x1
   14000a578:	d101c3ff 	sub	sp, sp, #0x70
   14000a57c:	910003e8 	mov	x8, sp
   14000a580:	f0ffffe9 	adrp	x9, 0x140009000
   14000a584:	9123e129 	add	x9, x9, #0x8f8
   14000a588:	a90007e0 	stp	x0, x1, [sp]
   14000a58c:	f000004a 	adrp	x10, 0x140015000
   14000a590:	912a614a 	add	x10, x10, #0xa98
   14000a594:	910083e0 	add	x0, sp, #0x20
   14000a598:	aa0403e1 	mov	x1, x4
   14000a59c:	a90527e8 	stp	x8, x9, [sp, #80]
   14000a5a0:	910043e8 	add	x8, sp, #0x10
   14000a5a4:	f0ffffe9 	adrp	x9, 0x140009000
   14000a5a8:	91229129 	add	x9, x9, #0x8a4
   14000a5ac:	a9010fe2 	stp	x2, x3, [sp, #16]
   14000a5b0:	f90013ff 	str	xzr, [sp, #32]
   14000a5b4:	a90627e8 	stp	x8, x9, [sp, #96]
   14000a5b8:	52800048 	mov	w8, #0x2                   	// #2
   14000a5bc:	910143e9 	add	x9, sp, #0x50
   14000a5c0:	a90323ea 	stp	x10, x8, [sp, #48]
   14000a5c4:	a90423e9 	stp	x9, x8, [sp, #64]
   14000a5c8:	97ffff63 	bl	0x14000a354
   14000a5cc:	d4200020 	brk	#0x1
   14000a5d0:	97fff7b3 	bl	0x14000849c
   14000a5d4:	d4200020 	brk	#0x1
   14000a5d8:	97fff7c4 	bl	0x1400084e8
   14000a5dc:	d4200020 	brk	#0x1
   14000a5e0:	97fff7d5 	bl	0x140008534
   14000a5e4:	d4200020 	brk	#0x1
   14000a5e8:	97fff96e 	bl	0x140008ba0
   14000a5ec:	d4200020 	brk	#0x1
